	.file	"main.cpp"
	.section .rdata,"dr"
__ZStL19piecewise_construct:
	.space 1
	.section	.text$_ZN9__gnu_cxx5__ops16__iter_less_iterEv,"x"
	.linkonce discard
	.globl	__ZN9__gnu_cxx5__ops16__iter_less_iterEv
	.def	__ZN9__gnu_cxx5__ops16__iter_less_iterEv;	.scl	2;	.type	32;	.endef
__ZN9__gnu_cxx5__ops16__iter_less_iterEv:
LFB239:
	.cfi_startproc
	pushl	%ebp
	.cfi_def_cfa_offset 8
	.cfi_offset 5, -8
	movl	%esp, %ebp
	.cfi_def_cfa_register 5
	popl	%ebp
	.cfi_restore 5
	.cfi_def_cfa 4, 4
	ret
	.cfi_endproc
LFE239:
	.section	.text$_ZN9__gnu_cxx5__ops15__iter_less_valEv,"x"
	.linkonce discard
	.globl	__ZN9__gnu_cxx5__ops15__iter_less_valEv
	.def	__ZN9__gnu_cxx5__ops15__iter_less_valEv;	.scl	2;	.type	32;	.endef
__ZN9__gnu_cxx5__ops15__iter_less_valEv:
LFB241:
	.cfi_startproc
	pushl	%ebp
	.cfi_def_cfa_offset 8
	.cfi_offset 5, -8
	movl	%esp, %ebp
	.cfi_def_cfa_register 5
	popl	%ebp
	.cfi_restore 5
	.cfi_def_cfa 4, 4
	ret
	.cfi_endproc
LFE241:
	.section	.text$_ZN9__gnu_cxx5__ops15__iter_comp_valENS0_15_Iter_less_iterE,"x"
	.linkonce discard
	.globl	__ZN9__gnu_cxx5__ops15__iter_comp_valENS0_15_Iter_less_iterE
	.def	__ZN9__gnu_cxx5__ops15__iter_comp_valENS0_15_Iter_less_iterE;	.scl	2;	.type	32;	.endef
__ZN9__gnu_cxx5__ops15__iter_comp_valENS0_15_Iter_less_iterE:
LFB242:
	.cfi_startproc
	pushl	%ebp
	.cfi_def_cfa_offset 8
	.cfi_offset 5, -8
	movl	%esp, %ebp
	.cfi_def_cfa_register 5
	popl	%ebp
	.cfi_restore 5
	.cfi_def_cfa 4, 4
	ret
	.cfi_endproc
LFE242:
	.section	.text$_ZN9__gnu_cxx5__ops15__val_comp_iterENS0_15_Iter_less_iterE,"x"
	.linkonce discard
	.globl	__ZN9__gnu_cxx5__ops15__val_comp_iterENS0_15_Iter_less_iterE
	.def	__ZN9__gnu_cxx5__ops15__val_comp_iterENS0_15_Iter_less_iterE;	.scl	2;	.type	32;	.endef
__ZN9__gnu_cxx5__ops15__val_comp_iterENS0_15_Iter_less_iterE:
LFB245:
	.cfi_startproc
	pushl	%ebp
	.cfi_def_cfa_offset 8
	.cfi_offset 5, -8
	movl	%esp, %ebp
	.cfi_def_cfa_register 5
	popl	%ebp
	.cfi_restore 5
	.cfi_def_cfa 4, 4
	ret
	.cfi_endproc
LFE245:
	.section	.text$_ZN9__gnu_cxx5__ops20__iter_equal_to_iterEv,"x"
	.linkonce discard
	.globl	__ZN9__gnu_cxx5__ops20__iter_equal_to_iterEv
	.def	__ZN9__gnu_cxx5__ops20__iter_equal_to_iterEv;	.scl	2;	.type	32;	.endef
__ZN9__gnu_cxx5__ops20__iter_equal_to_iterEv:
LFB247:
	.cfi_startproc
	pushl	%ebp
	.cfi_def_cfa_offset 8
	.cfi_offset 5, -8
	movl	%esp, %ebp
	.cfi_def_cfa_register 5
	popl	%ebp
	.cfi_restore 5
	.cfi_def_cfa 4, 4
	ret
	.cfi_endproc
LFE247:
	.section	.text$_ZSt4__lgi,"x"
	.linkonce discard
	.globl	__ZSt4__lgi
	.def	__ZSt4__lgi;	.scl	2;	.type	32;	.endef
__ZSt4__lgi:
LFB326:
	.cfi_startproc
	pushl	%ebp
	.cfi_def_cfa_offset 8
	.cfi_offset 5, -8
	movl	%esp, %ebp
	.cfi_def_cfa_register 5
	movl	8(%ebp), %eax
	bsrl	%eax, %eax
	xorl	$31, %eax
	movl	$31, %edx
	subl	%eax, %edx
	movl	%edx, %eax
	popl	%ebp
	.cfi_restore 5
	.cfi_def_cfa 4, 4
	ret
	.cfi_endproc
LFE326:
	.section	.text$_ZNSt11char_traitsIcE7compareEPKcS2_j,"x"
	.linkonce discard
	.globl	__ZNSt11char_traitsIcE7compareEPKcS2_j
	.def	__ZNSt11char_traitsIcE7compareEPKcS2_j;	.scl	2;	.type	32;	.endef
__ZNSt11char_traitsIcE7compareEPKcS2_j:
LFB361:
	.cfi_startproc
	pushl	%ebp
	.cfi_def_cfa_offset 8
	.cfi_offset 5, -8
	movl	%esp, %ebp
	.cfi_def_cfa_register 5
	subl	$24, %esp
	cmpl	$0, 16(%ebp)
	jne	L14
	movl	$0, %eax
	jmp	L15
L14:
	movl	16(%ebp), %eax
	movl	%eax, 8(%esp)
	movl	12(%ebp), %eax
	movl	%eax, 4(%esp)
	movl	8(%ebp), %eax
	movl	%eax, (%esp)
	call	_memcmp
L15:
	leave
	.cfi_restore 5
	.cfi_def_cfa 4, 4
	ret
	.cfi_endproc
LFE361:
	.section	.text$_ZNSt11char_traitsIcE6lengthEPKc,"x"
	.linkonce discard
	.globl	__ZNSt11char_traitsIcE6lengthEPKc
	.def	__ZNSt11char_traitsIcE6lengthEPKc;	.scl	2;	.type	32;	.endef
__ZNSt11char_traitsIcE6lengthEPKc:
LFB362:
	.cfi_startproc
	pushl	%ebp
	.cfi_def_cfa_offset 8
	.cfi_offset 5, -8
	movl	%esp, %ebp
	.cfi_def_cfa_register 5
	pushl	%edi
	.cfi_offset 7, -12
	movl	8(%ebp), %eax
	movl	$-1, %ecx
	movl	%eax, %edx
	movl	$0, %eax
	movl	%edx, %edi
	repnz scasb
	movl	%ecx, %eax
	notl	%eax
	subl	$1, %eax
	popl	%edi
	.cfi_restore 7
	popl	%ebp
	.cfi_restore 5
	.cfi_def_cfa 4, 4
	ret
	.cfi_endproc
LFE362:
	.text
	.def	___gthread_active_p;	.scl	3;	.type	32;	.endef
___gthread_active_p:
LFB416:
	.cfi_startproc
	pushl	%ebp
	.cfi_def_cfa_offset 8
	.cfi_offset 5, -8
	movl	%esp, %ebp
	.cfi_def_cfa_register 5
	movl	__CRT_MT, %eax
	popl	%ebp
	.cfi_restore 5
	.cfi_def_cfa 4, 4
	ret
	.cfi_endproc
LFE416:
	.def	__ZN9__gnu_cxxL18__exchange_and_addEPVii;	.scl	3;	.type	32;	.endef
__ZN9__gnu_cxxL18__exchange_and_addEPVii:
LFB432:
	.cfi_startproc
	pushl	%ebp
	.cfi_def_cfa_offset 8
	.cfi_offset 5, -8
	movl	%esp, %ebp
	.cfi_def_cfa_register 5
	movl	12(%ebp), %edx
	movl	8(%ebp), %eax
	lock xaddl	%edx, (%eax)
	movl	%edx, %eax
	popl	%ebp
	.cfi_restore 5
	.cfi_def_cfa 4, 4
	ret
	.cfi_endproc
LFE432:
	.def	__ZN9__gnu_cxxL25__exchange_and_add_singleEPii;	.scl	3;	.type	32;	.endef
__ZN9__gnu_cxxL25__exchange_and_add_singleEPii:
LFB434:
	.cfi_startproc
	pushl	%ebp
	.cfi_def_cfa_offset 8
	.cfi_offset 5, -8
	movl	%esp, %ebp
	.cfi_def_cfa_register 5
	subl	$16, %esp
	movl	8(%ebp), %eax
	movl	(%eax), %eax
	movl	%eax, -4(%ebp)
	movl	8(%ebp), %eax
	movl	(%eax), %edx
	movl	12(%ebp), %eax
	addl	%eax, %edx
	movl	8(%ebp), %eax
	movl	%edx, (%eax)
	movl	-4(%ebp), %eax
	leave
	.cfi_restore 5
	.cfi_def_cfa 4, 4
	ret
	.cfi_endproc
LFE434:
	.def	__ZN9__gnu_cxxL27__exchange_and_add_dispatchEPii;	.scl	3;	.type	32;	.endef
__ZN9__gnu_cxxL27__exchange_and_add_dispatchEPii:
LFB436:
	.cfi_startproc
	pushl	%ebp
	.cfi_def_cfa_offset 8
	.cfi_offset 5, -8
	movl	%esp, %ebp
	.cfi_def_cfa_register 5
	subl	$8, %esp
	call	___gthread_active_p
	testl	%eax, %eax
	setne	%al
	testb	%al, %al
	je	L25
	movl	12(%ebp), %eax
	movl	%eax, 4(%esp)
	movl	8(%ebp), %eax
	movl	%eax, (%esp)
	call	__ZN9__gnu_cxxL18__exchange_and_addEPVii
	jmp	L26
L25:
	movl	12(%ebp), %eax
	movl	%eax, 4(%esp)
	movl	8(%ebp), %eax
	movl	%eax, (%esp)
	call	__ZN9__gnu_cxxL25__exchange_and_add_singleEPii
L26:
	leave
	.cfi_restore 5
	.cfi_def_cfa 4, 4
	ret
	.cfi_endproc
LFE436:
	.section	.text$_ZnwjPv,"x"
	.linkonce discard
	.globl	__ZnwjPv
	.def	__ZnwjPv;	.scl	2;	.type	32;	.endef
__ZnwjPv:
LFB444:
	.cfi_startproc
	pushl	%ebp
	.cfi_def_cfa_offset 8
	.cfi_offset 5, -8
	movl	%esp, %ebp
	.cfi_def_cfa_register 5
	movl	12(%ebp), %eax
	popl	%ebp
	.cfi_restore 5
	.cfi_def_cfa 4, 4
	ret
	.cfi_endproc
LFE444:
	.section	.text$_ZdlPvS_,"x"
	.linkonce discard
	.globl	__ZdlPvS_
	.def	__ZdlPvS_;	.scl	2;	.type	32;	.endef
__ZdlPvS_:
LFB446:
	.cfi_startproc
	pushl	%ebp
	.cfi_def_cfa_offset 8
	.cfi_offset 5, -8
	movl	%esp, %ebp
	.cfi_def_cfa_register 5
	nop
	popl	%ebp
	.cfi_restore 5
	.cfi_def_cfa 4, 4
	ret
	.cfi_endproc
LFE446:
	.section .rdata,"dr"
LC1:
	.ascii "%d\0"
	.section	.text$_ZNSt7__cxx119to_stringEi,"x"
	.linkonce discard
	.globl	__ZNSt7__cxx119to_stringEi
	.def	__ZNSt7__cxx119to_stringEi;	.scl	2;	.type	32;	.endef
__ZNSt7__cxx119to_stringEi:
LFB851:
	.cfi_startproc
	pushl	%ebp
	.cfi_def_cfa_offset 8
	.cfi_offset 5, -8
	movl	%esp, %ebp
	.cfi_def_cfa_register 5
	subl	$40, %esp
	movl	8(%ebp), %eax
	movl	12(%ebp), %edx
	movl	%edx, 16(%esp)
	movl	$LC1, 12(%esp)
	movl	$16, 8(%esp)
	movl	$_vsnprintf, 4(%esp)
	movl	%eax, (%esp)
	call	__ZN9__gnu_cxx12__to_xstringINSt7__cxx1112basic_stringIcSt11char_traitsIcESaIcEEEcEET_PFiPT0_jPKS8_PcEjSB_z
	movl	8(%ebp), %eax
	leave
	.cfi_restore 5
	.cfi_def_cfa 4, 4
	ret
	.cfi_endproc
LFE851:
	.section	.text$_ZStanSt13_Ios_FmtflagsS_,"x"
	.linkonce discard
	.globl	__ZStanSt13_Ios_FmtflagsS_
	.def	__ZStanSt13_Ios_FmtflagsS_;	.scl	2;	.type	32;	.endef
__ZStanSt13_Ios_FmtflagsS_:
LFB1039:
	.cfi_startproc
	pushl	%ebp
	.cfi_def_cfa_offset 8
	.cfi_offset 5, -8
	movl	%esp, %ebp
	.cfi_def_cfa_register 5
	movl	8(%ebp), %eax
	andl	12(%ebp), %eax
	popl	%ebp
	.cfi_restore 5
	.cfi_def_cfa 4, 4
	ret
	.cfi_endproc
LFE1039:
	.section	.text$_ZStorSt13_Ios_FmtflagsS_,"x"
	.linkonce discard
	.globl	__ZStorSt13_Ios_FmtflagsS_
	.def	__ZStorSt13_Ios_FmtflagsS_;	.scl	2;	.type	32;	.endef
__ZStorSt13_Ios_FmtflagsS_:
LFB1040:
	.cfi_startproc
	pushl	%ebp
	.cfi_def_cfa_offset 8
	.cfi_offset 5, -8
	movl	%esp, %ebp
	.cfi_def_cfa_register 5
	movl	8(%ebp), %eax
	orl	12(%ebp), %eax
	popl	%ebp
	.cfi_restore 5
	.cfi_def_cfa 4, 4
	ret
	.cfi_endproc
LFE1040:
	.section	.text$_ZStcoSt13_Ios_Fmtflags,"x"
	.linkonce discard
	.globl	__ZStcoSt13_Ios_Fmtflags
	.def	__ZStcoSt13_Ios_Fmtflags;	.scl	2;	.type	32;	.endef
__ZStcoSt13_Ios_Fmtflags:
LFB1042:
	.cfi_startproc
	pushl	%ebp
	.cfi_def_cfa_offset 8
	.cfi_offset 5, -8
	movl	%esp, %ebp
	.cfi_def_cfa_register 5
	movl	8(%ebp), %eax
	notl	%eax
	popl	%ebp
	.cfi_restore 5
	.cfi_def_cfa 4, 4
	ret
	.cfi_endproc
LFE1042:
	.section	.text$_ZStoRRSt13_Ios_FmtflagsS_,"x"
	.linkonce discard
	.globl	__ZStoRRSt13_Ios_FmtflagsS_
	.def	__ZStoRRSt13_Ios_FmtflagsS_;	.scl	2;	.type	32;	.endef
__ZStoRRSt13_Ios_FmtflagsS_:
LFB1043:
	.cfi_startproc
	pushl	%ebp
	.cfi_def_cfa_offset 8
	.cfi_offset 5, -8
	movl	%esp, %ebp
	.cfi_def_cfa_register 5
	subl	$24, %esp
	movl	8(%ebp), %eax
	movl	(%eax), %eax
	movl	12(%ebp), %edx
	movl	%edx, 4(%esp)
	movl	%eax, (%esp)
	call	__ZStorSt13_Ios_FmtflagsS_
	movl	%eax, %edx
	movl	8(%ebp), %eax
	movl	%edx, (%eax)
	movl	8(%ebp), %eax
	leave
	.cfi_restore 5
	.cfi_def_cfa 4, 4
	ret
	.cfi_endproc
LFE1043:
	.section	.text$_ZStaNRSt13_Ios_FmtflagsS_,"x"
	.linkonce discard
	.globl	__ZStaNRSt13_Ios_FmtflagsS_
	.def	__ZStaNRSt13_Ios_FmtflagsS_;	.scl	2;	.type	32;	.endef
__ZStaNRSt13_Ios_FmtflagsS_:
LFB1044:
	.cfi_startproc
	pushl	%ebp
	.cfi_def_cfa_offset 8
	.cfi_offset 5, -8
	movl	%esp, %ebp
	.cfi_def_cfa_register 5
	subl	$24, %esp
	movl	8(%ebp), %eax
	movl	(%eax), %eax
	movl	12(%ebp), %edx
	movl	%edx, 4(%esp)
	movl	%eax, (%esp)
	call	__ZStanSt13_Ios_FmtflagsS_
	movl	%eax, %edx
	movl	8(%ebp), %eax
	movl	%edx, (%eax)
	movl	8(%ebp), %eax
	leave
	.cfi_restore 5
	.cfi_def_cfa 4, 4
	ret
	.cfi_endproc
LFE1044:
	.section	.text$_ZStorSt13_Ios_OpenmodeS_,"x"
	.linkonce discard
	.globl	__ZStorSt13_Ios_OpenmodeS_
	.def	__ZStorSt13_Ios_OpenmodeS_;	.scl	2;	.type	32;	.endef
__ZStorSt13_Ios_OpenmodeS_:
LFB1047:
	.cfi_startproc
	pushl	%ebp
	.cfi_def_cfa_offset 8
	.cfi_offset 5, -8
	movl	%esp, %ebp
	.cfi_def_cfa_register 5
	movl	8(%ebp), %eax
	orl	12(%ebp), %eax
	popl	%ebp
	.cfi_restore 5
	.cfi_def_cfa 4, 4
	ret
	.cfi_endproc
LFE1047:
	.section	.text$_ZNSt8ios_base4setfESt13_Ios_FmtflagsS0_,"x"
	.linkonce discard
	.align 2
	.globl	__ZNSt8ios_base4setfESt13_Ios_FmtflagsS0_
	.def	__ZNSt8ios_base4setfESt13_Ios_FmtflagsS0_;	.scl	2;	.type	32;	.endef
__ZNSt8ios_base4setfESt13_Ios_FmtflagsS0_:
LFB1073:
	.cfi_startproc
	pushl	%ebp
	.cfi_def_cfa_offset 8
	.cfi_offset 5, -8
	movl	%esp, %ebp
	.cfi_def_cfa_register 5
	subl	$56, %esp
	movl	%ecx, -28(%ebp)
	movl	-28(%ebp), %eax
	movl	12(%eax), %eax
	movl	%eax, -12(%ebp)
	movl	12(%ebp), %eax
	movl	%eax, (%esp)
	call	__ZStcoSt13_Ios_Fmtflags
	movl	%eax, %edx
	movl	-28(%ebp), %eax
	addl	$12, %eax
	movl	%edx, 4(%esp)
	movl	%eax, (%esp)
	call	__ZStaNRSt13_Ios_FmtflagsS_
	movl	12(%ebp), %eax
	movl	%eax, 4(%esp)
	movl	8(%ebp), %eax
	movl	%eax, (%esp)
	call	__ZStanSt13_Ios_FmtflagsS_
	movl	%eax, %edx
	movl	-28(%ebp), %eax
	addl	$12, %eax
	movl	%edx, 4(%esp)
	movl	%eax, (%esp)
	call	__ZStoRRSt13_Ios_FmtflagsS_
	movl	-12(%ebp), %eax
	leave
	.cfi_restore 5
	.cfi_def_cfa 4, 4
	ret	$8
	.cfi_endproc
LFE1073:
	.section	.text$_ZSt3hexRSt8ios_base,"x"
	.linkonce discard
	.globl	__ZSt3hexRSt8ios_base
	.def	__ZSt3hexRSt8ios_base;	.scl	2;	.type	32;	.endef
__ZSt3hexRSt8ios_base:
LFB1101:
	.cfi_startproc
	pushl	%ebp
	.cfi_def_cfa_offset 8
	.cfi_offset 5, -8
	movl	%esp, %ebp
	.cfi_def_cfa_register 5
	subl	$24, %esp
	movl	$74, 4(%esp)
	movl	$8, (%esp)
	movl	8(%ebp), %ecx
	call	__ZNSt8ios_base4setfESt13_Ios_FmtflagsS0_
	subl	$8, %esp
	movl	8(%ebp), %eax
	leave
	.cfi_restore 5
	.cfi_def_cfa 4, 4
	ret
	.cfi_endproc
LFE1101:
	.section	.text$_ZSt3octRSt8ios_base,"x"
	.linkonce discard
	.globl	__ZSt3octRSt8ios_base
	.def	__ZSt3octRSt8ios_base;	.scl	2;	.type	32;	.endef
__ZSt3octRSt8ios_base:
LFB1102:
	.cfi_startproc
	pushl	%ebp
	.cfi_def_cfa_offset 8
	.cfi_offset 5, -8
	movl	%esp, %ebp
	.cfi_def_cfa_register 5
	subl	$24, %esp
	movl	$74, 4(%esp)
	movl	$64, (%esp)
	movl	8(%ebp), %ecx
	call	__ZNSt8ios_base4setfESt13_Ios_FmtflagsS0_
	subl	$8, %esp
	movl	8(%ebp), %eax
	leave
	.cfi_restore 5
	.cfi_def_cfa 4, 4
	ret
	.cfi_endproc
LFE1102:
	.section	.text$_ZNKSt5ctypeIcE7tolowerEc,"x"
	.linkonce discard
	.align 2
	.globl	__ZNKSt5ctypeIcE7tolowerEc
	.def	__ZNKSt5ctypeIcE7tolowerEc;	.scl	2;	.type	32;	.endef
__ZNKSt5ctypeIcE7tolowerEc:
LFB1195:
	.cfi_startproc
	pushl	%ebp
	.cfi_def_cfa_offset 8
	.cfi_offset 5, -8
	movl	%esp, %ebp
	.cfi_def_cfa_register 5
	pushl	%ebx
	subl	$36, %esp
	.cfi_offset 3, -12
	movl	%ecx, -12(%ebp)
	movl	8(%ebp), %eax
	movb	%al, -16(%ebp)
	movl	-12(%ebp), %eax
	movl	(%eax), %eax
	addl	$16, %eax
	movl	(%eax), %ebx
	movsbl	-16(%ebp), %edx
	movl	-12(%ebp), %eax
	movl	%edx, (%esp)
	movl	%eax, %ecx
	call	*%ebx
	subl	$4, %esp
	movl	-4(%ebp), %ebx
	leave
	.cfi_restore 5
	.cfi_restore 3
	.cfi_def_cfa 4, 4
	ret	$4
	.cfi_endproc
LFE1195:
	.section	.text$_ZNKSt5ctypeIcE7tolowerEPcPKc,"x"
	.linkonce discard
	.align 2
	.globl	__ZNKSt5ctypeIcE7tolowerEPcPKc
	.def	__ZNKSt5ctypeIcE7tolowerEPcPKc;	.scl	2;	.type	32;	.endef
__ZNKSt5ctypeIcE7tolowerEPcPKc:
LFB1196:
	.cfi_startproc
	pushl	%ebp
	.cfi_def_cfa_offset 8
	.cfi_offset 5, -8
	movl	%esp, %ebp
	.cfi_def_cfa_register 5
	pushl	%ebx
	subl	$36, %esp
	.cfi_offset 3, -12
	movl	%ecx, -12(%ebp)
	movl	-12(%ebp), %eax
	movl	(%eax), %eax
	addl	$20, %eax
	movl	(%eax), %ebx
	movl	-12(%ebp), %eax
	movl	12(%ebp), %edx
	movl	%edx, 4(%esp)
	movl	8(%ebp), %edx
	movl	%edx, (%esp)
	movl	%eax, %ecx
	call	*%ebx
	subl	$8, %esp
	movl	-4(%ebp), %ebx
	leave
	.cfi_restore 5
	.cfi_restore 3
	.cfi_def_cfa 4, 4
	ret	$8
	.cfi_endproc
LFE1196:
	.section	.text$_ZNKSt5ctypeIcE5widenEc,"x"
	.linkonce discard
	.align 2
	.globl	__ZNKSt5ctypeIcE5widenEc
	.def	__ZNKSt5ctypeIcE5widenEc;	.scl	2;	.type	32;	.endef
__ZNKSt5ctypeIcE5widenEc:
LFB1197:
	.cfi_startproc
	pushl	%ebp
	.cfi_def_cfa_offset 8
	.cfi_offset 5, -8
	movl	%esp, %ebp
	.cfi_def_cfa_register 5
	pushl	%ebx
	subl	$36, %esp
	.cfi_offset 3, -12
	movl	%ecx, -12(%ebp)
	movl	8(%ebp), %eax
	movb	%al, -16(%ebp)
	movl	-12(%ebp), %eax
	movzbl	28(%eax), %eax
	testb	%al, %al
	je	L55
	movzbl	-16(%ebp), %eax
	movzbl	%al, %eax
	movl	-12(%ebp), %edx
	movzbl	29(%edx,%eax), %eax
	jmp	L56
L55:
	movl	-12(%ebp), %eax
	movl	%eax, %ecx
	call	__ZNKSt5ctypeIcE13_M_widen_initEv
	movl	-12(%ebp), %eax
	movl	(%eax), %eax
	addl	$24, %eax
	movl	(%eax), %ebx
	movsbl	-16(%ebp), %edx
	movl	-12(%ebp), %eax
	movl	%edx, (%esp)
	movl	%eax, %ecx
	call	*%ebx
	subl	$4, %esp
L56:
	movl	-4(%ebp), %ebx
	leave
	.cfi_restore 5
	.cfi_restore 3
	.cfi_def_cfa 4, 4
	ret	$4
	.cfi_endproc
LFE1197:
	.section	.text$_ZNKSt5ctypeIcE6narrowEcc,"x"
	.linkonce discard
	.align 2
	.globl	__ZNKSt5ctypeIcE6narrowEcc
	.def	__ZNKSt5ctypeIcE6narrowEcc;	.scl	2;	.type	32;	.endef
__ZNKSt5ctypeIcE6narrowEcc:
LFB1199:
	.cfi_startproc
	pushl	%ebp
	.cfi_def_cfa_offset 8
	.cfi_offset 5, -8
	movl	%esp, %ebp
	.cfi_def_cfa_register 5
	pushl	%ebx
	subl	$52, %esp
	.cfi_offset 3, -12
	movl	%ecx, -28(%ebp)
	movl	8(%ebp), %edx
	movl	12(%ebp), %eax
	movb	%dl, -32(%ebp)
	movb	%al, -36(%ebp)
	movzbl	-32(%ebp), %eax
	movzbl	%al, %eax
	movl	-28(%ebp), %edx
	movzbl	285(%edx,%eax), %eax
	testb	%al, %al
	je	L58
	movzbl	-32(%ebp), %eax
	movzbl	%al, %eax
	movl	-28(%ebp), %edx
	movzbl	285(%edx,%eax), %eax
	jmp	L59
L58:
	movl	-28(%ebp), %eax
	movl	(%eax), %eax
	addl	$32, %eax
	movl	(%eax), %ebx
	movsbl	-36(%ebp), %ecx
	movsbl	-32(%ebp), %edx
	movl	-28(%ebp), %eax
	movl	%ecx, 4(%esp)
	movl	%edx, (%esp)
	movl	%eax, %ecx
	call	*%ebx
	subl	$8, %esp
	movb	%al, -9(%ebp)
	movzbl	-9(%ebp), %eax
	cmpb	-36(%ebp), %al
	je	L60
	movzbl	-32(%ebp), %eax
	movzbl	%al, %eax
	movl	-28(%ebp), %edx
	movzbl	-9(%ebp), %ecx
	movb	%cl, 285(%edx,%eax)
L60:
	movzbl	-9(%ebp), %eax
L59:
	movl	-4(%ebp), %ebx
	leave
	.cfi_restore 5
	.cfi_restore 3
	.cfi_def_cfa 4, 4
	ret	$8
	.cfi_endproc
LFE1199:
	.section	.text$_ZNKSt5ctypeIcE2isEtc,"x"
	.linkonce discard
	.align 2
	.globl	__ZNKSt5ctypeIcE2isEtc
	.def	__ZNKSt5ctypeIcE2isEtc;	.scl	2;	.type	32;	.endef
__ZNKSt5ctypeIcE2isEtc:
LFB1208:
	.cfi_startproc
	pushl	%ebp
	.cfi_def_cfa_offset 8
	.cfi_offset 5, -8
	movl	%esp, %ebp
	.cfi_def_cfa_register 5
	subl	$12, %esp
	movl	%ecx, -4(%ebp)
	movl	8(%ebp), %edx
	movl	12(%ebp), %eax
	movw	%dx, -8(%ebp)
	movb	%al, -12(%ebp)
	movl	-4(%ebp), %eax
	movl	24(%eax), %eax
	movzbl	-12(%ebp), %edx
	movzbl	%dl, %edx
	addl	%edx, %edx
	addl	%edx, %eax
	movzwl	(%eax), %eax
	andw	-8(%ebp), %ax
	testw	%ax, %ax
	setne	%al
	leave
	.cfi_restore 5
	.cfi_def_cfa 4, 4
	ret	$8
	.cfi_endproc
LFE1208:
.lcomm __ZStL8__ioinit,1,1
	.section .rdata,"dr"
__ZStL13allocator_arg:
	.space 1
__ZStL6ignore:
	.space 1
	.section	.text$_ZNSt9_Any_data9_M_accessEv,"x"
	.linkonce discard
	.align 2
	.globl	__ZNSt9_Any_data9_M_accessEv
	.def	__ZNSt9_Any_data9_M_accessEv;	.scl	2;	.type	32;	.endef
__ZNSt9_Any_data9_M_accessEv:
LFB2821:
	.cfi_startproc
	pushl	%ebp
	.cfi_def_cfa_offset 8
	.cfi_offset 5, -8
	movl	%esp, %ebp
	.cfi_def_cfa_register 5
	subl	$4, %esp
	movl	%ecx, -4(%ebp)
	movl	-4(%ebp), %eax
	leave
	.cfi_restore 5
	.cfi_def_cfa 4, 4
	ret
	.cfi_endproc
LFE2821:
	.section	.text$_ZNKSt9_Any_data9_M_accessEv,"x"
	.linkonce discard
	.align 2
	.globl	__ZNKSt9_Any_data9_M_accessEv
	.def	__ZNKSt9_Any_data9_M_accessEv;	.scl	2;	.type	32;	.endef
__ZNKSt9_Any_data9_M_accessEv:
LFB2822:
	.cfi_startproc
	pushl	%ebp
	.cfi_def_cfa_offset 8
	.cfi_offset 5, -8
	movl	%esp, %ebp
	.cfi_def_cfa_register 5
	subl	$4, %esp
	movl	%ecx, -4(%ebp)
	movl	-4(%ebp), %eax
	leave
	.cfi_restore 5
	.cfi_def_cfa 4, 4
	ret
	.cfi_endproc
LFE2822:
	.section	.text$_ZNSt14_Function_baseC2Ev,"x"
	.linkonce discard
	.align 2
	.globl	__ZNSt14_Function_baseC2Ev
	.def	__ZNSt14_Function_baseC2Ev;	.scl	2;	.type	32;	.endef
__ZNSt14_Function_baseC2Ev:
LFB2847:
	.cfi_startproc
	pushl	%ebp
	.cfi_def_cfa_offset 8
	.cfi_offset 5, -8
	movl	%esp, %ebp
	.cfi_def_cfa_register 5
	subl	$4, %esp
	movl	%ecx, -4(%ebp)
	movl	-4(%ebp), %eax
	movl	$0, 8(%eax)
	nop
	leave
	.cfi_restore 5
	.cfi_def_cfa 4, 4
	ret
	.cfi_endproc
LFE2847:
	.section	.text$_ZNSt14_Function_baseD2Ev,"x"
	.linkonce discard
	.align 2
	.globl	__ZNSt14_Function_baseD2Ev
	.def	__ZNSt14_Function_baseD2Ev;	.scl	2;	.type	32;	.endef
__ZNSt14_Function_baseD2Ev:
LFB2850:
	.cfi_startproc
	.cfi_personality 0,___gxx_personality_v0
	.cfi_lsda 0,LLSDA2850
	pushl	%ebp
	.cfi_def_cfa_offset 8
	.cfi_offset 5, -8
	movl	%esp, %ebp
	.cfi_def_cfa_register 5
	subl	$40, %esp
	movl	%ecx, -12(%ebp)
	movl	-12(%ebp), %eax
	movl	8(%eax), %eax
	testl	%eax, %eax
	je	L70
	movl	-12(%ebp), %eax
	movl	8(%eax), %eax
	movl	-12(%ebp), %ecx
	movl	-12(%ebp), %edx
	movl	$3, 8(%esp)
	movl	%ecx, 4(%esp)
	movl	%edx, (%esp)
	call	*%eax
L70:
	nop
	leave
	.cfi_restore 5
	.cfi_def_cfa 4, 4
	ret
	.cfi_endproc
LFE2850:
	.def	___gxx_personality_v0;	.scl	2;	.type	32;	.endef
	.section	.gcc_except_table,"w"
LLSDA2850:
	.byte	0xff
	.byte	0xff
	.byte	0x1
	.uleb128 LLSDACSE2850-LLSDACSB2850
LLSDACSB2850:
LLSDACSE2850:
	.section	.text$_ZNSt14_Function_baseD2Ev,"x"
	.linkonce discard
	.section	.text$_ZNKSt14_Function_base8_M_emptyEv,"x"
	.linkonce discard
	.align 2
	.globl	__ZNKSt14_Function_base8_M_emptyEv
	.def	__ZNKSt14_Function_base8_M_emptyEv;	.scl	2;	.type	32;	.endef
__ZNKSt14_Function_base8_M_emptyEv:
LFB2852:
	.cfi_startproc
	pushl	%ebp
	.cfi_def_cfa_offset 8
	.cfi_offset 5, -8
	movl	%esp, %ebp
	.cfi_def_cfa_register 5
	subl	$4, %esp
	movl	%ecx, -4(%ebp)
	movl	-4(%ebp), %eax
	movl	8(%eax), %eax
	testl	%eax, %eax
	sete	%al
	leave
	.cfi_restore 5
	.cfi_def_cfa 4, 4
	ret
	.cfi_endproc
LFE2852:
	.section .rdata,"dr"
	.align 4
__ZN9__gnu_cxxL21__default_lock_policyE:
	.long	2
	.section	.text$_ZSt16__deque_buf_sizej,"x"
	.linkonce discard
	.globl	__ZSt16__deque_buf_sizej
	.def	__ZSt16__deque_buf_sizej;	.scl	2;	.type	32;	.endef
__ZSt16__deque_buf_sizej:
LFB3556:
	.cfi_startproc
	pushl	%ebp
	.cfi_def_cfa_offset 8
	.cfi_offset 5, -8
	movl	%esp, %ebp
	.cfi_def_cfa_register 5
	cmpl	$511, 8(%ebp)
	ja	L74
	movl	$512, %eax
	movl	$0, %edx
	divl	8(%ebp)
	jmp	L76
L74:
	movl	$1, %eax
L76:
	popl	%ebp
	.cfi_restore 5
	.cfi_def_cfa 4, 4
	ret
	.cfi_endproc
LFE3556:
	.section .rdata,"dr"
	.align 4
__ZNSt15regex_constantsL5icaseE:
	.long	1
	.align 4
__ZNSt15regex_constantsL6nosubsE:
	.long	2
	.align 4
__ZNSt15regex_constantsL8optimizeE:
	.long	4
	.align 4
__ZNSt15regex_constantsL7collateE:
	.long	8
	.align 4
__ZNSt15regex_constantsL10ECMAScriptE:
	.long	16
	.align 4
__ZNSt15regex_constantsL5basicE:
	.long	32
	.align 4
__ZNSt15regex_constantsL8extendedE:
	.long	64
	.align 4
__ZNSt15regex_constantsL3awkE:
	.long	128
	.align 4
__ZNSt15regex_constantsL4grepE:
	.long	256
	.align 4
__ZNSt15regex_constantsL5egrepE:
	.long	512
	.align 4
__ZNSt15regex_constantsL12__polynomialE:
	.long	1024
	.section	.text$_ZNSt15regex_constantsanENS_18syntax_option_typeES0_,"x"
	.linkonce discard
	.globl	__ZNSt15regex_constantsanENS_18syntax_option_typeES0_
	.def	__ZNSt15regex_constantsanENS_18syntax_option_typeES0_;	.scl	2;	.type	32;	.endef
__ZNSt15regex_constantsanENS_18syntax_option_typeES0_:
LFB4086:
	.cfi_startproc
	pushl	%ebp
	.cfi_def_cfa_offset 8
	.cfi_offset 5, -8
	movl	%esp, %ebp
	.cfi_def_cfa_register 5
	movl	8(%ebp), %eax
	andl	12(%ebp), %eax
	popl	%ebp
	.cfi_restore 5
	.cfi_def_cfa 4, 4
	ret
	.cfi_endproc
LFE4086:
	.section	.text$_ZNSt15regex_constantsorENS_18syntax_option_typeES0_,"x"
	.linkonce discard
	.globl	__ZNSt15regex_constantsorENS_18syntax_option_typeES0_
	.def	__ZNSt15regex_constantsorENS_18syntax_option_typeES0_;	.scl	2;	.type	32;	.endef
__ZNSt15regex_constantsorENS_18syntax_option_typeES0_:
LFB4087:
	.cfi_startproc
	pushl	%ebp
	.cfi_def_cfa_offset 8
	.cfi_offset 5, -8
	movl	%esp, %ebp
	.cfi_def_cfa_register 5
	movl	8(%ebp), %eax
	orl	12(%ebp), %eax
	popl	%ebp
	.cfi_restore 5
	.cfi_def_cfa 4, 4
	ret
	.cfi_endproc
LFE4087:
	.section .rdata,"dr"
	.align 4
__ZNSt15regex_constantsL13match_defaultE:
	.space 4
	.align 4
__ZNSt15regex_constantsL13match_not_bolE:
	.long	1
	.align 4
__ZNSt15regex_constantsL13match_not_eolE:
	.long	2
	.align 4
__ZNSt15regex_constantsL13match_not_bowE:
	.long	4
	.align 4
__ZNSt15regex_constantsL13match_not_eowE:
	.long	8
	.align 4
__ZNSt15regex_constantsL9match_anyE:
	.long	16
	.align 4
__ZNSt15regex_constantsL14match_not_nullE:
	.long	32
	.align 4
__ZNSt15regex_constantsL16match_continuousE:
	.long	64
	.align 4
__ZNSt15regex_constantsL16match_prev_availE:
	.long	128
	.align 4
__ZNSt15regex_constantsL14format_defaultE:
	.space 4
	.align 4
__ZNSt15regex_constantsL10format_sedE:
	.long	256
	.align 4
__ZNSt15regex_constantsL14format_no_copyE:
	.long	512
	.align 4
__ZNSt15regex_constantsL17format_first_onlyE:
	.long	1024
	.section	.text$_ZNSt15regex_constantsanENS_15match_flag_typeES0_,"x"
	.linkonce discard
	.globl	__ZNSt15regex_constantsanENS_15match_flag_typeES0_
	.def	__ZNSt15regex_constantsanENS_15match_flag_typeES0_;	.scl	2;	.type	32;	.endef
__ZNSt15regex_constantsanENS_15match_flag_typeES0_:
LFB4093:
	.cfi_startproc
	pushl	%ebp
	.cfi_def_cfa_offset 8
	.cfi_offset 5, -8
	movl	%esp, %ebp
	.cfi_def_cfa_register 5
	movl	8(%ebp), %eax
	andl	12(%ebp), %eax
	popl	%ebp
	.cfi_restore 5
	.cfi_def_cfa 4, 4
	ret
	.cfi_endproc
LFE4093:
	.section	.text$_ZNSt15regex_constantsorENS_15match_flag_typeES0_,"x"
	.linkonce discard
	.globl	__ZNSt15regex_constantsorENS_15match_flag_typeES0_
	.def	__ZNSt15regex_constantsorENS_15match_flag_typeES0_;	.scl	2;	.type	32;	.endef
__ZNSt15regex_constantsorENS_15match_flag_typeES0_:
LFB4094:
	.cfi_startproc
	pushl	%ebp
	.cfi_def_cfa_offset 8
	.cfi_offset 5, -8
	movl	%esp, %ebp
	.cfi_def_cfa_register 5
	movl	8(%ebp), %eax
	orl	12(%ebp), %eax
	popl	%ebp
	.cfi_restore 5
	.cfi_def_cfa 4, 4
	ret
	.cfi_endproc
LFE4094:
	.section	.text$_ZNSt15regex_constantscoENS_15match_flag_typeE,"x"
	.linkonce discard
	.globl	__ZNSt15regex_constantscoENS_15match_flag_typeE
	.def	__ZNSt15regex_constantscoENS_15match_flag_typeE;	.scl	2;	.type	32;	.endef
__ZNSt15regex_constantscoENS_15match_flag_typeE:
LFB4096:
	.cfi_startproc
	pushl	%ebp
	.cfi_def_cfa_offset 8
	.cfi_offset 5, -8
	movl	%esp, %ebp
	.cfi_def_cfa_register 5
	movl	8(%ebp), %eax
	notl	%eax
	popl	%ebp
	.cfi_restore 5
	.cfi_def_cfa 4, 4
	ret
	.cfi_endproc
LFE4096:
	.section	.text$_ZNSt15regex_constantsoRERNS_15match_flag_typeES0_,"x"
	.linkonce discard
	.globl	__ZNSt15regex_constantsoRERNS_15match_flag_typeES0_
	.def	__ZNSt15regex_constantsoRERNS_15match_flag_typeES0_;	.scl	2;	.type	32;	.endef
__ZNSt15regex_constantsoRERNS_15match_flag_typeES0_:
LFB4098:
	.cfi_startproc
	pushl	%ebp
	.cfi_def_cfa_offset 8
	.cfi_offset 5, -8
	movl	%esp, %ebp
	.cfi_def_cfa_register 5
	subl	$24, %esp
	movl	8(%ebp), %eax
	movl	(%eax), %eax
	movl	12(%ebp), %edx
	movl	%edx, 4(%esp)
	movl	%eax, (%esp)
	call	__ZNSt15regex_constantsorENS_15match_flag_typeES0_
	movl	%eax, %edx
	movl	8(%ebp), %eax
	movl	%edx, (%eax)
	movl	8(%ebp), %eax
	leave
	.cfi_restore 5
	.cfi_def_cfa 4, 4
	ret
	.cfi_endproc
LFE4098:
	.section .rdata,"dr"
	.align 4
__ZNSt15regex_constantsL13error_collateE:
	.space 4
	.align 4
__ZNSt15regex_constantsL11error_ctypeE:
	.long	1
	.align 4
__ZNSt15regex_constantsL12error_escapeE:
	.long	2
	.align 4
__ZNSt15regex_constantsL13error_backrefE:
	.long	3
	.align 4
__ZNSt15regex_constantsL11error_brackE:
	.long	4
	.align 4
__ZNSt15regex_constantsL11error_parenE:
	.long	5
	.align 4
__ZNSt15regex_constantsL11error_braceE:
	.long	6
	.align 4
__ZNSt15regex_constantsL14error_badbraceE:
	.long	7
	.align 4
__ZNSt15regex_constantsL11error_rangeE:
	.long	8
	.align 4
__ZNSt15regex_constantsL11error_spaceE:
	.long	9
	.align 4
__ZNSt15regex_constantsL15error_badrepeatE:
	.long	10
	.align 4
__ZNSt15regex_constantsL16error_complexityE:
	.long	11
	.align 4
__ZNSt15regex_constantsL11error_stackE:
	.long	12
	.section	.text$_ZNSt11regex_errorC1ENSt15regex_constants10error_typeEPKc,"x"
	.linkonce discard
	.align 2
	.globl	__ZNSt11regex_errorC1ENSt15regex_constants10error_typeEPKc
	.def	__ZNSt11regex_errorC1ENSt15regex_constants10error_typeEPKc;	.scl	2;	.type	32;	.endef
__ZNSt11regex_errorC1ENSt15regex_constants10error_typeEPKc:
LFB4103:
	.cfi_startproc
	pushl	%ebp
	.cfi_def_cfa_offset 8
	.cfi_offset 5, -8
	movl	%esp, %ebp
	.cfi_def_cfa_register 5
	subl	$40, %esp
	movl	%ecx, -12(%ebp)
	movl	-12(%ebp), %eax
	movl	12(%ebp), %edx
	movl	%edx, (%esp)
	movl	%eax, %ecx
	call	__ZNSt13runtime_errorC2EPKc
	subl	$4, %esp
	movl	$__ZTVSt11regex_error+8, %edx
	movl	-12(%ebp), %eax
	movl	%edx, (%eax)
	movl	-12(%ebp), %eax
	movl	8(%ebp), %edx
	movl	%edx, 8(%eax)
	nop
	leave
	.cfi_restore 5
	.cfi_def_cfa 4, 4
	ret	$8
	.cfi_endproc
LFE4103:
	.section	.text$_ZSt19__throw_regex_errorNSt15regex_constants10error_typeEPKc,"x"
	.linkonce discard
	.globl	__ZSt19__throw_regex_errorNSt15regex_constants10error_typeEPKc
	.def	__ZSt19__throw_regex_errorNSt15regex_constants10error_typeEPKc;	.scl	2;	.type	32;	.endef
__ZSt19__throw_regex_errorNSt15regex_constants10error_typeEPKc:
LFB4104:
	.cfi_startproc
	.cfi_personality 0,___gxx_personality_v0
	.cfi_lsda 0,LLSDA4104
	pushl	%ebp
	.cfi_def_cfa_offset 8
	.cfi_offset 5, -8
	movl	%esp, %ebp
	.cfi_def_cfa_register 5
	pushl	%esi
	pushl	%ebx
	subl	$16, %esp
	.cfi_offset 6, -12
	.cfi_offset 3, -16
	movl	$12, (%esp)
	call	___cxa_allocate_exception
	movl	%eax, %ebx
	movl	12(%ebp), %eax
	movl	%eax, 4(%esp)
	movl	8(%ebp), %eax
	movl	%eax, (%esp)
	movl	%ebx, %ecx
LEHB0:
	call	__ZNSt11regex_errorC1ENSt15regex_constants10error_typeEPKc
LEHE0:
	subl	$8, %esp
	movl	$__ZNSt11regex_errorD1Ev, 8(%esp)
	movl	$__ZTISt11regex_error, 4(%esp)
	movl	%ebx, (%esp)
LEHB1:
	call	___cxa_throw
L92:
	movl	%eax, %esi
	movl	%ebx, (%esp)
	call	___cxa_free_exception
	movl	%esi, %eax
	movl	%eax, (%esp)
	call	__Unwind_Resume
LEHE1:
	.cfi_endproc
LFE4104:
	.section	.gcc_except_table,"w"
LLSDA4104:
	.byte	0xff
	.byte	0xff
	.byte	0x1
	.uleb128 LLSDACSE4104-LLSDACSB4104
LLSDACSB4104:
	.uleb128 LEHB0-LFB4104
	.uleb128 LEHE0-LEHB0
	.uleb128 L92-LFB4104
	.uleb128 0
	.uleb128 LEHB1-LFB4104
	.uleb128 LEHE1-LEHB1
	.uleb128 0
	.uleb128 0
LLSDACSE4104:
	.section	.text$_ZSt19__throw_regex_errorNSt15regex_constants10error_typeEPKc,"x"
	.linkonce discard
	.section .rdata,"dr"
	.align 4
__ZNSt8__detailL19_S_invalid_state_idE:
	.long	-1
	.section	.text$_ZNSt8__detail11_State_baseC2ENS_7_OpcodeE,"x"
	.linkonce discard
	.align 2
	.globl	__ZNSt8__detail11_State_baseC2ENS_7_OpcodeE
	.def	__ZNSt8__detail11_State_baseC2ENS_7_OpcodeE;	.scl	2;	.type	32;	.endef
__ZNSt8__detail11_State_baseC2ENS_7_OpcodeE:
LFB4109:
	.cfi_startproc
	pushl	%ebp
	.cfi_def_cfa_offset 8
	.cfi_offset 5, -8
	movl	%esp, %ebp
	.cfi_def_cfa_register 5
	subl	$4, %esp
	movl	%ecx, -4(%ebp)
	movl	-4(%ebp), %eax
	movl	8(%ebp), %edx
	movl	%edx, (%eax)
	movl	-4(%ebp), %eax
	movl	$-1, 4(%eax)
	nop
	leave
	.cfi_restore 5
	.cfi_def_cfa 4, 4
	ret	$4
	.cfi_endproc
LFE4109:
	.section	.text$_ZNSt8__detail11_State_base10_M_has_altEv,"x"
	.linkonce discard
	.align 2
	.globl	__ZNSt8__detail11_State_base10_M_has_altEv
	.def	__ZNSt8__detail11_State_base10_M_has_altEv;	.scl	2;	.type	32;	.endef
__ZNSt8__detail11_State_base10_M_has_altEv:
LFB4111:
	.cfi_startproc
	pushl	%ebp
	.cfi_def_cfa_offset 8
	.cfi_offset 5, -8
	movl	%esp, %ebp
	.cfi_def_cfa_register 5
	subl	$4, %esp
	movl	%ecx, -4(%ebp)
	movl	-4(%ebp), %eax
	movl	(%eax), %eax
	cmpl	$1, %eax
	je	L95
	movl	-4(%ebp), %eax
	movl	(%eax), %eax
	cmpl	$2, %eax
	je	L95
	movl	-4(%ebp), %eax
	movl	(%eax), %eax
	cmpl	$7, %eax
	jne	L96
L95:
	movl	$1, %eax
	jmp	L97
L96:
	movl	$0, %eax
L97:
	leave
	.cfi_restore 5
	.cfi_def_cfa 4, 4
	ret
	.cfi_endproc
LFE4111:
	.section	.text$_ZNSt8__detail9_NFA_baseC2ENSt15regex_constants18syntax_option_typeE,"x"
	.linkonce discard
	.align 2
	.globl	__ZNSt8__detail9_NFA_baseC2ENSt15regex_constants18syntax_option_typeE
	.def	__ZNSt8__detail9_NFA_baseC2ENSt15regex_constants18syntax_option_typeE;	.scl	2;	.type	32;	.endef
__ZNSt8__detail9_NFA_baseC2ENSt15regex_constants18syntax_option_typeE:
LFB4121:
	.cfi_startproc
	pushl	%ebp
	.cfi_def_cfa_offset 8
	.cfi_offset 5, -8
	movl	%esp, %ebp
	.cfi_def_cfa_register 5
	subl	$24, %esp
	movl	%ecx, -12(%ebp)
	movl	-12(%ebp), %eax
	movl	%eax, %ecx
	call	__ZNSt6vectorIjSaIjEEC1Ev
	movl	-12(%ebp), %eax
	movl	8(%ebp), %edx
	movl	%edx, 12(%eax)
	movl	-12(%ebp), %eax
	movl	$0, 16(%eax)
	movl	-12(%ebp), %eax
	movl	$0, 20(%eax)
	movl	-12(%ebp), %eax
	movb	$0, 24(%eax)
	nop
	leave
	.cfi_restore 5
	.cfi_def_cfa 4, 4
	ret	$4
	.cfi_endproc
LFE4121:
	.section	.text$_ZNKSt8__detail9_NFA_base8_M_startEv,"x"
	.linkonce discard
	.align 2
	.globl	__ZNKSt8__detail9_NFA_base8_M_startEv
	.def	__ZNKSt8__detail9_NFA_base8_M_startEv;	.scl	2;	.type	32;	.endef
__ZNKSt8__detail9_NFA_base8_M_startEv:
LFB4124:
	.cfi_startproc
	pushl	%ebp
	.cfi_def_cfa_offset 8
	.cfi_offset 5, -8
	movl	%esp, %ebp
	.cfi_def_cfa_register 5
	subl	$4, %esp
	movl	%ecx, -4(%ebp)
	movl	-4(%ebp), %eax
	movl	16(%eax), %eax
	leave
	.cfi_restore 5
	.cfi_def_cfa 4, 4
	ret
	.cfi_endproc
LFE4124:
	.section	.text$_ZNKSt8__detail9_NFA_base12_M_sub_countEv,"x"
	.linkonce discard
	.align 2
	.globl	__ZNKSt8__detail9_NFA_base12_M_sub_countEv
	.def	__ZNKSt8__detail9_NFA_base12_M_sub_countEv;	.scl	2;	.type	32;	.endef
__ZNKSt8__detail9_NFA_base12_M_sub_countEv:
LFB4125:
	.cfi_startproc
	pushl	%ebp
	.cfi_def_cfa_offset 8
	.cfi_offset 5, -8
	movl	%esp, %ebp
	.cfi_def_cfa_register 5
	subl	$4, %esp
	movl	%ecx, -4(%ebp)
	movl	-4(%ebp), %eax
	movl	20(%eax), %eax
	leave
	.cfi_restore 5
	.cfi_def_cfa 4, 4
	ret
	.cfi_endproc
LFE4125:
	.section	.text$_ZSt7forwardIcEOT_RNSt16remove_referenceIS0_E4typeE,"x"
	.linkonce discard
	.globl	__ZSt7forwardIcEOT_RNSt16remove_referenceIS0_E4typeE
	.def	__ZSt7forwardIcEOT_RNSt16remove_referenceIS0_E4typeE;	.scl	2;	.type	32;	.endef
__ZSt7forwardIcEOT_RNSt16remove_referenceIS0_E4typeE:
LFB4155:
	.cfi_startproc
	pushl	%ebp
	.cfi_def_cfa_offset 8
	.cfi_offset 5, -8
	movl	%esp, %ebp
	.cfi_def_cfa_register 5
	movl	8(%ebp), %eax
	popl	%ebp
	.cfi_restore 5
	.cfi_def_cfa 4, 4
	ret
	.cfi_endproc
LFE4155:
	.section	.text$_ZNSt4pairIccEC1IccLb1EEEOT_OT0_,"x"
	.linkonce discard
	.align 2
	.globl	__ZNSt4pairIccEC1IccLb1EEEOT_OT0_
	.def	__ZNSt4pairIccEC1IccLb1EEEOT_OT0_;	.scl	2;	.type	32;	.endef
__ZNSt4pairIccEC1IccLb1EEEOT_OT0_:
LFB4169:
	.cfi_startproc
	pushl	%ebp
	.cfi_def_cfa_offset 8
	.cfi_offset 5, -8
	movl	%esp, %ebp
	.cfi_def_cfa_register 5
	subl	$40, %esp
	movl	%ecx, -12(%ebp)
	movl	8(%ebp), %eax
	movl	%eax, (%esp)
	call	__ZSt7forwardIcEOT_RNSt16remove_referenceIS0_E4typeE
	movzbl	(%eax), %edx
	movl	-12(%ebp), %eax
	movb	%dl, (%eax)
	movl	12(%ebp), %eax
	movl	%eax, (%esp)
	call	__ZSt7forwardIcEOT_RNSt16remove_referenceIS0_E4typeE
	movzbl	(%eax), %edx
	movl	-12(%ebp), %eax
	movb	%dl, 1(%eax)
	nop
	leave
	.cfi_restore 5
	.cfi_def_cfa 4, 4
	ret	$8
	.cfi_endproc
LFE4169:
	.section .rdata,"dr"
LC2:
	.ascii "^$\\.*+?()[]{}|\0"
LC3:
	.ascii ".[\\*^$\0"
LC4:
	.ascii ".[\\()*+?{|^$\0"
LC5:
	.ascii ".[\\()*+?{|^$\12\0"
LC6:
	.ascii ".[\\*^$\12\0"
	.data
	.align 32
LC0:
	.byte	94
	.space 3
	.long	22
	.byte	36
	.space 3
	.long	23
	.byte	46
	.space 3
	.long	0
	.byte	42
	.space 3
	.long	20
	.byte	43
	.space 3
	.long	21
	.byte	63
	.space 3
	.long	18
	.byte	124
	.space 3
	.long	19
	.byte	10
	.space 3
	.long	19
	.byte	0
	.space 3
	.long	19
	.section	.text$_ZNSt8__detail12_ScannerBaseC2ENSt15regex_constants18syntax_option_typeE,"x"
	.linkonce discard
	.align 2
	.globl	__ZNSt8__detail12_ScannerBaseC2ENSt15regex_constants18syntax_option_typeE
	.def	__ZNSt8__detail12_ScannerBaseC2ENSt15regex_constants18syntax_option_typeE;	.scl	2;	.type	32;	.endef
__ZNSt8__detail12_ScannerBaseC2ENSt15regex_constants18syntax_option_typeE:
LFB4171:
	.cfi_startproc
	pushl	%ebp
	.cfi_def_cfa_offset 8
	.cfi_offset 5, -8
	movl	%esp, %ebp
	.cfi_def_cfa_register 5
	pushl	%edi
	pushl	%esi
	pushl	%ebx
	subl	$44, %esp
	.cfi_offset 7, -12
	.cfi_offset 6, -16
	.cfi_offset 3, -20
	movl	%ecx, -28(%ebp)
	movl	-28(%ebp), %eax
	movl	%eax, %edx
	movl	$LC0, %ebx
	movl	$18, %eax
	movl	%edx, %edi
	movl	%ebx, %esi
	movl	%eax, %ecx
	rep movsl
	movl	-28(%ebp), %eax
	movb	$48, 72(%eax)
	movl	-28(%ebp), %eax
	movb	$0, 73(%eax)
	movl	-28(%ebp), %eax
	movb	$98, 74(%eax)
	movl	-28(%ebp), %eax
	movb	$8, 75(%eax)
	movl	-28(%ebp), %eax
	movb	$102, 76(%eax)
	movl	-28(%ebp), %eax
	movb	$12, 77(%eax)
	movl	-28(%ebp), %eax
	movb	$110, 78(%eax)
	movl	-28(%ebp), %eax
	movb	$10, 79(%eax)
	movl	-28(%ebp), %eax
	movb	$114, 80(%eax)
	movl	-28(%ebp), %eax
	movb	$13, 81(%eax)
	movl	-28(%ebp), %eax
	movb	$116, 82(%eax)
	movl	-28(%ebp), %eax
	movb	$9, 83(%eax)
	movl	-28(%ebp), %eax
	movb	$118, 84(%eax)
	movl	-28(%ebp), %eax
	movb	$11, 85(%eax)
	movl	-28(%ebp), %eax
	movb	$0, 86(%eax)
	movl	-28(%ebp), %eax
	movb	$0, 87(%eax)
	movl	-28(%ebp), %eax
	movb	$34, 88(%eax)
	movl	-28(%ebp), %eax
	movb	$34, 89(%eax)
	movl	-28(%ebp), %eax
	movb	$47, 90(%eax)
	movl	-28(%ebp), %eax
	movb	$47, 91(%eax)
	movl	-28(%ebp), %eax
	movb	$92, 92(%eax)
	movl	-28(%ebp), %eax
	movb	$92, 93(%eax)
	movl	-28(%ebp), %eax
	movb	$97, 94(%eax)
	movl	-28(%ebp), %eax
	movb	$7, 95(%eax)
	movl	-28(%ebp), %eax
	movb	$98, 96(%eax)
	movl	-28(%ebp), %eax
	movb	$8, 97(%eax)
	movl	-28(%ebp), %eax
	movb	$102, 98(%eax)
	movl	-28(%ebp), %eax
	movb	$12, 99(%eax)
	movl	-28(%ebp), %eax
	movb	$110, 100(%eax)
	movl	-28(%ebp), %eax
	movb	$10, 101(%eax)
	movl	-28(%ebp), %eax
	movb	$114, 102(%eax)
	movl	-28(%ebp), %eax
	movb	$13, 103(%eax)
	movl	-28(%ebp), %eax
	movb	$116, 104(%eax)
	movl	-28(%ebp), %eax
	movb	$9, 105(%eax)
	movl	-28(%ebp), %eax
	movb	$118, 106(%eax)
	movl	-28(%ebp), %eax
	movb	$11, 107(%eax)
	movl	-28(%ebp), %eax
	movb	$0, 108(%eax)
	movl	-28(%ebp), %eax
	movb	$0, 109(%eax)
	movl	-28(%ebp), %eax
	movl	$LC2, 112(%eax)
	movl	-28(%ebp), %eax
	movl	$LC3, 116(%eax)
	movl	-28(%ebp), %eax
	movl	$LC4, 120(%eax)
	movl	-28(%ebp), %eax
	movl	$0, 124(%eax)
	movl	-28(%ebp), %eax
	movl	8(%ebp), %edx
	movl	%edx, 128(%eax)
	movl	-28(%ebp), %eax
	movl	%eax, %ecx
	call	__ZNKSt8__detail12_ScannerBase10_M_is_ecmaEv
	testb	%al, %al
	je	L108
	movl	-28(%ebp), %eax
	addl	$72, %eax
	jmp	L109
L108:
	movl	-28(%ebp), %eax
	addl	$88, %eax
L109:
	movl	-28(%ebp), %edx
	movl	%eax, 136(%edx)
	movl	-28(%ebp), %eax
	movl	%eax, %ecx
	call	__ZNKSt8__detail12_ScannerBase10_M_is_ecmaEv
	testb	%al, %al
	je	L110
	movl	-28(%ebp), %eax
	movl	112(%eax), %eax
	jmp	L111
L110:
	movl	-28(%ebp), %eax
	movl	128(%eax), %eax
	movl	$32, 4(%esp)
	movl	%eax, (%esp)
	call	__ZNSt15regex_constantsanENS_18syntax_option_typeES0_
	testl	%eax, %eax
	je	L112
	movl	-28(%ebp), %eax
	movl	116(%eax), %eax
	jmp	L111
L112:
	movl	-28(%ebp), %eax
	movl	128(%eax), %eax
	movl	$64, 4(%esp)
	movl	%eax, (%esp)
	call	__ZNSt15regex_constantsanENS_18syntax_option_typeES0_
	testl	%eax, %eax
	je	L114
	movl	-28(%ebp), %eax
	movl	120(%eax), %eax
	jmp	L111
L114:
	movl	-28(%ebp), %eax
	movl	128(%eax), %eax
	movl	$256, 4(%esp)
	movl	%eax, (%esp)
	call	__ZNSt15regex_constantsanENS_18syntax_option_typeES0_
	testl	%eax, %eax
	jne	L116
	movl	-28(%ebp), %eax
	movl	128(%eax), %eax
	movl	$512, 4(%esp)
	movl	%eax, (%esp)
	call	__ZNSt15regex_constantsanENS_18syntax_option_typeES0_
	testl	%eax, %eax
	jne	L117
	movl	-28(%ebp), %eax
	movl	128(%eax), %eax
	movl	$128, 4(%esp)
	movl	%eax, (%esp)
	call	__ZNSt15regex_constantsanENS_18syntax_option_typeES0_
	testl	%eax, %eax
	je	L118
	movl	-28(%ebp), %eax
	movl	120(%eax), %eax
	jmp	L111
L118:
	movl	$0, %eax
	jmp	L111
L117:
	movl	$LC5, %eax
	jmp	L111
L116:
	movl	$LC6, %eax
L111:
	movl	-28(%ebp), %edx
	movl	%eax, 140(%edx)
	movl	-28(%ebp), %eax
	movb	$0, 144(%eax)
	nop
	addl	$44, %esp
	popl	%ebx
	.cfi_restore 3
	popl	%esi
	.cfi_restore 6
	popl	%edi
	.cfi_restore 7
	popl	%ebp
	.cfi_restore 5
	.cfi_def_cfa 4, 4
	ret	$4
	.cfi_endproc
LFE4171:
	.section	.text$_ZNSt8__detail12_ScannerBase14_M_find_escapeEc,"x"
	.linkonce discard
	.align 2
	.globl	__ZNSt8__detail12_ScannerBase14_M_find_escapeEc
	.def	__ZNSt8__detail12_ScannerBase14_M_find_escapeEc;	.scl	2;	.type	32;	.endef
__ZNSt8__detail12_ScannerBase14_M_find_escapeEc:
LFB4173:
	.cfi_startproc
	pushl	%ebp
	.cfi_def_cfa_offset 8
	.cfi_offset 5, -8
	movl	%esp, %ebp
	.cfi_def_cfa_register 5
	subl	$24, %esp
	movl	%ecx, -20(%ebp)
	movl	8(%ebp), %eax
	movb	%al, -24(%ebp)
	movl	-20(%ebp), %eax
	movl	136(%eax), %eax
	movl	%eax, -4(%ebp)
L126:
	movl	-4(%ebp), %eax
	movzbl	(%eax), %eax
	testb	%al, %al
	je	L123
	movl	-4(%ebp), %eax
	movzbl	(%eax), %eax
	cmpb	-24(%ebp), %al
	jne	L124
	movl	-4(%ebp), %eax
	addl	$1, %eax
	jmp	L125
L124:
	addl	$2, -4(%ebp)
	jmp	L126
L123:
	movl	$0, %eax
L125:
	leave
	.cfi_restore 5
	.cfi_def_cfa 4, 4
	ret	$4
	.cfi_endproc
LFE4173:
	.section	.text$_ZNKSt8__detail12_ScannerBase10_M_is_ecmaEv,"x"
	.linkonce discard
	.align 2
	.globl	__ZNKSt8__detail12_ScannerBase10_M_is_ecmaEv
	.def	__ZNKSt8__detail12_ScannerBase10_M_is_ecmaEv;	.scl	2;	.type	32;	.endef
__ZNKSt8__detail12_ScannerBase10_M_is_ecmaEv:
LFB4174:
	.cfi_startproc
	pushl	%ebp
	.cfi_def_cfa_offset 8
	.cfi_offset 5, -8
	movl	%esp, %ebp
	.cfi_def_cfa_register 5
	subl	$40, %esp
	movl	%ecx, -12(%ebp)
	movl	-12(%ebp), %eax
	movl	128(%eax), %eax
	movl	$16, 4(%esp)
	movl	%eax, (%esp)
	call	__ZNSt15regex_constantsanENS_18syntax_option_typeES0_
	testl	%eax, %eax
	setne	%al
	leave
	.cfi_restore 5
	.cfi_def_cfa 4, 4
	ret
	.cfi_endproc
LFE4174:
	.section	.text$_ZNKSt8__detail12_ScannerBase11_M_is_basicEv,"x"
	.linkonce discard
	.align 2
	.globl	__ZNKSt8__detail12_ScannerBase11_M_is_basicEv
	.def	__ZNKSt8__detail12_ScannerBase11_M_is_basicEv;	.scl	2;	.type	32;	.endef
__ZNKSt8__detail12_ScannerBase11_M_is_basicEv:
LFB4175:
	.cfi_startproc
	pushl	%ebp
	.cfi_def_cfa_offset 8
	.cfi_offset 5, -8
	movl	%esp, %ebp
	.cfi_def_cfa_register 5
	subl	$40, %esp
	movl	%ecx, -12(%ebp)
	movl	$256, 4(%esp)
	movl	$32, (%esp)
	call	__ZNSt15regex_constantsorENS_18syntax_option_typeES0_
	movl	%eax, %edx
	movl	-12(%ebp), %eax
	movl	128(%eax), %eax
	movl	%edx, 4(%esp)
	movl	%eax, (%esp)
	call	__ZNSt15regex_constantsanENS_18syntax_option_typeES0_
	testl	%eax, %eax
	setne	%al
	leave
	.cfi_restore 5
	.cfi_def_cfa 4, 4
	ret
	.cfi_endproc
LFE4175:
	.section	.text$_ZNKSt8__detail12_ScannerBase9_M_is_awkEv,"x"
	.linkonce discard
	.align 2
	.globl	__ZNKSt8__detail12_ScannerBase9_M_is_awkEv
	.def	__ZNKSt8__detail12_ScannerBase9_M_is_awkEv;	.scl	2;	.type	32;	.endef
__ZNKSt8__detail12_ScannerBase9_M_is_awkEv:
LFB4178:
	.cfi_startproc
	pushl	%ebp
	.cfi_def_cfa_offset 8
	.cfi_offset 5, -8
	movl	%esp, %ebp
	.cfi_def_cfa_register 5
	subl	$40, %esp
	movl	%ecx, -12(%ebp)
	movl	-12(%ebp), %eax
	movl	128(%eax), %eax
	movl	$128, 4(%esp)
	movl	%eax, (%esp)
	call	__ZNSt15regex_constantsanENS_18syntax_option_typeES0_
	testl	%eax, %eax
	setne	%al
	leave
	.cfi_restore 5
	.cfi_def_cfa 4, 4
	ret
	.cfi_endproc
LFE4178:
	.text
	.align 2
	.globl	__ZN2DBC2EPKc
	.def	__ZN2DBC2EPKc;	.scl	2;	.type	32;	.endef
__ZN2DBC2EPKc:
LFB4440:
	.cfi_startproc
	.cfi_personality 0,___gxx_personality_v0
	.cfi_lsda 0,LLSDA4440
	pushl	%ebp
	.cfi_def_cfa_offset 8
	.cfi_offset 5, -8
	movl	%esp, %ebp
	.cfi_def_cfa_register 5
	pushl	%ebx
	subl	$36, %esp
	.cfi_offset 3, -12
	movl	%ecx, -12(%ebp)
	movl	-12(%ebp), %eax
	movl	%eax, %ecx
	call	__ZNSt7__cxx1112basic_stringIcSt11char_traitsIcESaIcEEC1Ev
	movl	-12(%ebp), %eax
	movl	8(%ebp), %edx
	movl	%edx, (%esp)
	movl	%eax, %ecx
LEHB2:
	call	__ZNSt7__cxx1112basic_stringIcSt11char_traitsIcESaIcEEaSEPKc
	subl	$4, %esp
	movl	-12(%ebp), %eax
	movl	%eax, %ecx
	call	__ZN2DB9patchItemEv
LEHE2:
	jmp	L136
L135:
	movl	%eax, %ebx
	movl	-12(%ebp), %eax
	movl	%eax, %ecx
	call	__ZNSt7__cxx1112basic_stringIcSt11char_traitsIcESaIcEED1Ev
	movl	%ebx, %eax
	movl	%eax, (%esp)
LEHB3:
	call	__Unwind_Resume
LEHE3:
L136:
	movl	-4(%ebp), %ebx
	leave
	.cfi_restore 5
	.cfi_restore 3
	.cfi_def_cfa 4, 4
	ret	$4
	.cfi_endproc
LFE4440:
	.section	.gcc_except_table,"w"
LLSDA4440:
	.byte	0xff
	.byte	0xff
	.byte	0x1
	.uleb128 LLSDACSE4440-LLSDACSB4440
LLSDACSB4440:
	.uleb128 LEHB2-LFB4440
	.uleb128 LEHE2-LEHB2
	.uleb128 L135-LFB4440
	.uleb128 0
	.uleb128 LEHB3-LFB4440
	.uleb128 LEHE3-LEHB3
	.uleb128 0
	.uleb128 0
LLSDACSE4440:
	.text
	.globl	__ZN2DBC1EPKc
	.def	__ZN2DBC1EPKc;	.scl	2;	.type	32;	.endef
	.set	__ZN2DBC1EPKc,__ZN2DBC2EPKc
	.section .rdata,"dr"
LC7:
	.ascii "\\[[^\\[\\]\\=]+\\]\\=\0"
LC8:
	.ascii "\0"
	.text
	.align 2
	.globl	__ZN2DB7getItemB5cxx11EPKc
	.def	__ZN2DB7getItemB5cxx11EPKc;	.scl	2;	.type	32;	.endef
__ZN2DB7getItemB5cxx11EPKc:
LFB4442:
	.cfi_startproc
	.cfi_personality 0,___gxx_personality_v0
	.cfi_lsda 0,LLSDA4442
	pushl	%ebp
	.cfi_def_cfa_offset 8
	.cfi_offset 5, -8
	movl	%esp, %ebp
	.cfi_def_cfa_register 5
	pushl	%esi
	pushl	%ebx
	subl	$352, %esp
	.cfi_offset 6, -12
	.cfi_offset 3, -16
	movl	%ecx, -316(%ebp)
	leal	-260(%ebp), %eax
	movl	%eax, %ecx
LEHB4:
	call	__ZNSt14basic_ifstreamIcSt11char_traitsIcEEC1Ev
LEHE4:
	leal	-284(%ebp), %eax
	movl	%eax, %ecx
	call	__ZNSt7__cxx1112basic_stringIcSt11char_traitsIcESaIcEEC1Ev
	movl	-316(%ebp), %eax
	movl	%eax, %ecx
	call	__ZNSt7__cxx1112basic_stringIcSt11char_traitsIcESaIcEEC1Ev
	movl	8(%ebp), %edx
	leal	-260(%ebp), %eax
	movl	$8, 4(%esp)
	movl	%edx, (%esp)
	movl	%eax, %ecx
LEHB5:
	call	__ZNSt14basic_ifstreamIcSt11char_traitsIcEE4openERKNSt7__cxx1112basic_stringIcS1_SaIcEEESt13_Ios_Openmode
	subl	$8, %esp
	leal	-260(%ebp), %eax
	movl	%eax, %ecx
	call	__ZNSt14basic_ifstreamIcSt11char_traitsIcEE7is_openEv
	testb	%al, %al
	je	L149
L141:
	leal	-284(%ebp), %eax
	movl	%eax, 4(%esp)
	leal	-260(%ebp), %eax
	movl	%eax, (%esp)
	call	__ZSt7getlineIcSt11char_traitsIcESaIcEERSt13basic_istreamIT_T0_ES7_RNSt7__cxx1112basic_stringIS4_S5_T1_EE
	movl	(%eax), %edx
	subl	$12, %edx
	movl	(%edx), %edx
	addl	%edx, %eax
	movl	%eax, %ecx
	call	__ZNKSt9basic_iosIcSt11char_traitsIcEEcvbEv
	testb	%al, %al
	je	L139
	movl	-316(%ebp), %eax
	movl	%eax, %ecx
	call	__ZNKSt7__cxx1112basic_stringIcSt11char_traitsIcESaIcEE4sizeEv
	testl	%eax, %eax
	sete	%al
	testb	%al, %al
	je	L141
	leal	-300(%ebp), %eax
	movl	$16, 4(%esp)
	movl	$LC7, (%esp)
	movl	%eax, %ecx
	call	__ZNSt7__cxx1111basic_regexIcNS_12regex_traitsIcEEEC1EPKcNSt15regex_constants18syntax_option_typeE
LEHE5:
	subl	$8, %esp
	leal	-284(%ebp), %eax
	movl	%eax, %ecx
	call	__ZNSt7__cxx1112basic_stringIcSt11char_traitsIcESaIcEE3endEv
	movl	%eax, %esi
	leal	-284(%ebp), %eax
	movl	%eax, %ecx
	call	__ZNSt7__cxx1112basic_stringIcSt11char_traitsIcESaIcEE5beginEv
	movl	%eax, %ebx
	movl	-316(%ebp), %eax
	movl	%eax, (%esp)
LEHB6:
	call	__ZSt13back_inserterINSt7__cxx1112basic_stringIcSt11char_traitsIcESaIcEEEESt20back_insert_iteratorIT_ERS7_
	movl	%eax, %edx
	movl	$0, 20(%esp)
	movl	$LC8, 16(%esp)
	leal	-300(%ebp), %eax
	movl	%eax, 12(%esp)
	movl	%esi, 8(%esp)
	movl	%ebx, 4(%esp)
	movl	%edx, (%esp)
	call	__ZSt13regex_replaceISt20back_insert_iteratorINSt7__cxx1112basic_stringIcSt11char_traitsIcESaIcEEEEN9__gnu_cxx17__normal_iteratorIPcS6_EENS1_12regex_traitsIcEEcET_SE_T0_SF_RKNS1_11basic_regexIT2_T1_EEPKSH_NSt15regex_constants15match_flag_typeE
LEHE6:
	leal	-300(%ebp), %eax
	movl	%eax, %ecx
	call	__ZNSt7__cxx1111basic_regexIcNS_12regex_traitsIcEEED1Ev
	jmp	L141
L139:
	leal	-260(%ebp), %eax
	movl	%eax, %ecx
LEHB7:
	call	__ZNSt14basic_ifstreamIcSt11char_traitsIcEE5closeEv
LEHE7:
L149:
	nop
	leal	-284(%ebp), %eax
	movl	%eax, %ecx
	call	__ZNSt7__cxx1112basic_stringIcSt11char_traitsIcESaIcEED1Ev
	leal	-260(%ebp), %eax
	movl	%eax, %ecx
	call	__ZNSt14basic_ifstreamIcSt11char_traitsIcEED1Ev
	jmp	L148
L146:
	movl	%eax, %ebx
	leal	-300(%ebp), %eax
	movl	%eax, %ecx
	call	__ZNSt7__cxx1111basic_regexIcNS_12regex_traitsIcEEED1Ev
	jmp	L144
L145:
	movl	%eax, %ebx
L144:
	movl	-316(%ebp), %eax
	movl	%eax, %ecx
	call	__ZNSt7__cxx1112basic_stringIcSt11char_traitsIcESaIcEED1Ev
	leal	-284(%ebp), %eax
	movl	%eax, %ecx
	call	__ZNSt7__cxx1112basic_stringIcSt11char_traitsIcESaIcEED1Ev
	leal	-260(%ebp), %eax
	movl	%eax, %ecx
	call	__ZNSt14basic_ifstreamIcSt11char_traitsIcEED1Ev
	movl	%ebx, %eax
	movl	%eax, (%esp)
LEHB8:
	call	__Unwind_Resume
LEHE8:
L148:
	movl	-316(%ebp), %eax
	leal	-8(%ebp), %esp
	popl	%ebx
	.cfi_restore 3
	popl	%esi
	.cfi_restore 6
	popl	%ebp
	.cfi_restore 5
	.cfi_def_cfa 4, 4
	ret	$8
	.cfi_endproc
LFE4442:
	.section	.gcc_except_table,"w"
LLSDA4442:
	.byte	0xff
	.byte	0xff
	.byte	0x1
	.uleb128 LLSDACSE4442-LLSDACSB4442
LLSDACSB4442:
	.uleb128 LEHB4-LFB4442
	.uleb128 LEHE4-LEHB4
	.uleb128 0
	.uleb128 0
	.uleb128 LEHB5-LFB4442
	.uleb128 LEHE5-LEHB5
	.uleb128 L145-LFB4442
	.uleb128 0
	.uleb128 LEHB6-LFB4442
	.uleb128 LEHE6-LEHB6
	.uleb128 L146-LFB4442
	.uleb128 0
	.uleb128 LEHB7-LFB4442
	.uleb128 LEHE7-LEHB7
	.uleb128 L145-LFB4442
	.uleb128 0
	.uleb128 LEHB8-LFB4442
	.uleb128 LEHE8-LEHB8
	.uleb128 0
	.uleb128 0
LLSDACSE4442:
	.text
	.section .rdata,"dr"
LC9:
	.ascii "\\=(.?)*\0"
LC10:
	.ascii "\12\0"
	.text
	.align 2
	.globl	__ZN2DB10removeItemEPKc
	.def	__ZN2DB10removeItemEPKc;	.scl	2;	.type	32;	.endef
__ZN2DB10removeItemEPKc:
LFB4443:
	.cfi_startproc
	.cfi_personality 0,___gxx_personality_v0
	.cfi_lsda 0,LLSDA4443
	pushl	%ebp
	.cfi_def_cfa_offset 8
	.cfi_offset 5, -8
	movl	%esp, %ebp
	.cfi_def_cfa_register 5
	pushl	%esi
	pushl	%ebx
	subl	$656, %esp
	.cfi_offset 6, -12
	.cfi_offset 3, -16
	movl	%ecx, -620(%ebp)
	leal	-276(%ebp), %eax
	movl	%eax, %ecx
LEHB9:
	call	__ZNSt14basic_ofstreamIcSt11char_traitsIcEEC1Ev
LEHE9:
	leal	-528(%ebp), %eax
	movl	%eax, %ecx
LEHB10:
	call	__ZNSt14basic_ifstreamIcSt11char_traitsIcEEC1Ev
LEHE10:
	leal	-552(%ebp), %eax
	movl	%eax, %ecx
	call	__ZNSt7__cxx1112basic_stringIcSt11char_traitsIcESaIcEEC1Ev
	leal	-568(%ebp), %eax
	movl	$16, 4(%esp)
	movl	$LC9, (%esp)
	movl	%eax, %ecx
LEHB11:
	call	__ZNSt7__cxx1111basic_regexIcNS_12regex_traitsIcEEEC1EPKcNSt15regex_constants18syntax_option_typeE
LEHE11:
	subl	$8, %esp
	leal	-592(%ebp), %eax
	movl	%eax, %ecx
	call	__ZNSt7__cxx1112basic_stringIcSt11char_traitsIcESaIcEEC1Ev
	leal	-604(%ebp), %eax
	movl	%eax, %ecx
	call	__ZNSt6vectorINSt7__cxx1112basic_stringIcSt11char_traitsIcESaIcEEESaIS5_EEC1Ev
	movl	-620(%ebp), %edx
	leal	-528(%ebp), %eax
	movl	$8, 4(%esp)
	movl	%edx, (%esp)
	movl	%eax, %ecx
LEHB12:
	call	__ZNSt14basic_ifstreamIcSt11char_traitsIcEE4openERKNSt7__cxx1112basic_stringIcS1_SaIcEEESt13_Ios_Openmode
	subl	$8, %esp
	leal	-528(%ebp), %eax
	movl	%eax, %ecx
	call	__ZNSt14basic_ifstreamIcSt11char_traitsIcEE7is_openEv
	testb	%al, %al
	je	L151
L154:
	leal	-552(%ebp), %eax
	movl	%eax, 4(%esp)
	leal	-528(%ebp), %eax
	movl	%eax, (%esp)
	call	__ZSt7getlineIcSt11char_traitsIcESaIcEERSt13basic_istreamIT_T0_ES7_RNSt7__cxx1112basic_stringIS4_S5_T1_EE
	movl	(%eax), %edx
	subl	$12, %edx
	movl	(%edx), %edx
	addl	%edx, %eax
	movl	%eax, %ecx
	call	__ZNKSt9basic_iosIcSt11char_traitsIcEEcvbEv
	testb	%al, %al
	je	L152
	leal	-592(%ebp), %eax
	movl	$LC8, (%esp)
	movl	%eax, %ecx
	call	__ZNSt7__cxx1112basic_stringIcSt11char_traitsIcESaIcEEaSEPKc
	subl	$4, %esp
	leal	-552(%ebp), %eax
	movl	%eax, %ecx
	call	__ZNSt7__cxx1112basic_stringIcSt11char_traitsIcESaIcEE3endEv
	movl	%eax, %esi
	leal	-552(%ebp), %eax
	movl	%eax, %ecx
	call	__ZNSt7__cxx1112basic_stringIcSt11char_traitsIcESaIcEE5beginEv
	movl	%eax, %ebx
	leal	-592(%ebp), %eax
	movl	%eax, (%esp)
	call	__ZSt13back_inserterINSt7__cxx1112basic_stringIcSt11char_traitsIcESaIcEEEESt20back_insert_iteratorIT_ERS7_
	movl	%eax, %edx
	movl	$0, 20(%esp)
	movl	$LC8, 16(%esp)
	leal	-568(%ebp), %eax
	movl	%eax, 12(%esp)
	movl	%esi, 8(%esp)
	movl	%ebx, 4(%esp)
	movl	%edx, (%esp)
	call	__ZSt13regex_replaceISt20back_insert_iteratorINSt7__cxx1112basic_stringIcSt11char_traitsIcESaIcEEEEN9__gnu_cxx17__normal_iteratorIPcS6_EENS1_12regex_traitsIcEEcET_SE_T0_SF_RKNS1_11basic_regexIT2_T1_EEPKSH_NSt15regex_constants15match_flag_typeE
	movl	8(%ebp), %eax
	movl	%eax, 4(%esp)
	leal	-592(%ebp), %eax
	movl	%eax, (%esp)
	call	__ZStneIcSt11char_traitsIcESaIcEEbRKNSt7__cxx1112basic_stringIT_T0_T1_EEPKS5_
	testb	%al, %al
	je	L154
	leal	-604(%ebp), %eax
	movl	%eax, %ecx
	call	__ZNSt6vectorINSt7__cxx1112basic_stringIcSt11char_traitsIcESaIcEEESaIS5_EE3endEv
	movl	%eax, -24(%ebp)
	leal	-28(%ebp), %eax
	leal	-24(%ebp), %edx
	movl	%edx, (%esp)
	movl	%eax, %ecx
	call	__ZN9__gnu_cxx17__normal_iteratorIPKNSt7__cxx1112basic_stringIcSt11char_traitsIcESaIcEEESt6vectorIS6_SaIS6_EEEC1IPS6_EERKNS0_IT_NS_11__enable_ifIXsrSt10__are_sameISF_SE_E7__valueESB_E6__typeEEE
	subl	$4, %esp
	leal	-604(%ebp), %eax
	leal	-552(%ebp), %edx
	movl	%edx, 4(%esp)
	movl	-28(%ebp), %edx
	movl	%edx, (%esp)
	movl	%eax, %ecx
	call	__ZNSt6vectorINSt7__cxx1112basic_stringIcSt11char_traitsIcESaIcEEESaIS5_EE6insertEN9__gnu_cxx17__normal_iteratorIPKS5_S7_EERSA_
	subl	$8, %esp
	jmp	L154
L152:
	leal	-528(%ebp), %eax
	movl	%eax, %ecx
	call	__ZNSt14basic_ifstreamIcSt11char_traitsIcEE5closeEv
	movl	$32, 4(%esp)
	movl	$16, (%esp)
	call	__ZStorSt13_Ios_OpenmodeS_
	movl	%eax, %ecx
	movl	-620(%ebp), %edx
	leal	-276(%ebp), %eax
	movl	%ecx, 4(%esp)
	movl	%edx, (%esp)
	movl	%eax, %ecx
	call	__ZNSt14basic_ofstreamIcSt11char_traitsIcEE4openERKNSt7__cxx1112basic_stringIcS1_SaIcEEESt13_Ios_Openmode
	subl	$8, %esp
	leal	-276(%ebp), %eax
	movl	%eax, %ecx
	call	__ZNSt14basic_ofstreamIcSt11char_traitsIcEE7is_openEv
	testb	%al, %al
	je	L151
	movl	$0, -16(%ebp)
	leal	-604(%ebp), %eax
	movl	%eax, %ecx
	call	__ZNKSt6vectorINSt7__cxx1112basic_stringIcSt11char_traitsIcESaIcEEESaIS5_EE4sizeEv
	movl	%eax, -20(%ebp)
	movl	$0, -12(%ebp)
L157:
	movl	-12(%ebp), %eax
	cmpl	-20(%ebp), %eax
	jnb	L156
	leal	-604(%ebp), %eax
	movl	-12(%ebp), %edx
	movl	%edx, (%esp)
	movl	%eax, %ecx
	call	__ZNSt6vectorINSt7__cxx1112basic_stringIcSt11char_traitsIcESaIcEEESaIS5_EEixEj
	subl	$4, %esp
	movl	%eax, 4(%esp)
	leal	-276(%ebp), %eax
	movl	%eax, (%esp)
	call	__ZStlsIcSt11char_traitsIcESaIcEERSt13basic_ostreamIT_T0_ES7_RKNSt7__cxx1112basic_stringIS4_S5_T1_EE
	movl	$LC10, 4(%esp)
	movl	%eax, (%esp)
	call	__ZStlsISt11char_traitsIcEERSt13basic_ostreamIcT_ES5_PKc
	addl	$1, -12(%ebp)
	jmp	L157
L156:
	leal	-276(%ebp), %eax
	movl	%eax, %ecx
	call	__ZNSt14basic_ofstreamIcSt11char_traitsIcEE5closeEv
LEHE12:
L151:
	leal	-604(%ebp), %eax
	movl	%eax, %ecx
	call	__ZNSt6vectorINSt7__cxx1112basic_stringIcSt11char_traitsIcESaIcEEESaIS5_EED1Ev
	leal	-592(%ebp), %eax
	movl	%eax, %ecx
	call	__ZNSt7__cxx1112basic_stringIcSt11char_traitsIcESaIcEED1Ev
	leal	-568(%ebp), %eax
	movl	%eax, %ecx
	call	__ZNSt7__cxx1111basic_regexIcNS_12regex_traitsIcEEED1Ev
	leal	-552(%ebp), %eax
	movl	%eax, %ecx
	call	__ZNSt7__cxx1112basic_stringIcSt11char_traitsIcESaIcEED1Ev
	leal	-528(%ebp), %eax
	movl	%eax, %ecx
	call	__ZNSt14basic_ifstreamIcSt11char_traitsIcEED1Ev
	leal	-276(%ebp), %eax
	movl	%eax, %ecx
	call	__ZNSt14basic_ofstreamIcSt11char_traitsIcEED1Ev
	jmp	L164
L163:
	movl	%eax, %ebx
	leal	-604(%ebp), %eax
	movl	%eax, %ecx
	call	__ZNSt6vectorINSt7__cxx1112basic_stringIcSt11char_traitsIcESaIcEEESaIS5_EED1Ev
	leal	-592(%ebp), %eax
	movl	%eax, %ecx
	call	__ZNSt7__cxx1112basic_stringIcSt11char_traitsIcESaIcEED1Ev
	leal	-568(%ebp), %eax
	movl	%eax, %ecx
	call	__ZNSt7__cxx1111basic_regexIcNS_12regex_traitsIcEEED1Ev
	jmp	L159
L162:
	movl	%eax, %ebx
L159:
	leal	-552(%ebp), %eax
	movl	%eax, %ecx
	call	__ZNSt7__cxx1112basic_stringIcSt11char_traitsIcESaIcEED1Ev
	leal	-528(%ebp), %eax
	movl	%eax, %ecx
	call	__ZNSt14basic_ifstreamIcSt11char_traitsIcEED1Ev
	jmp	L160
L161:
	movl	%eax, %ebx
L160:
	leal	-276(%ebp), %eax
	movl	%eax, %ecx
	call	__ZNSt14basic_ofstreamIcSt11char_traitsIcEED1Ev
	movl	%ebx, %eax
	movl	%eax, (%esp)
LEHB13:
	call	__Unwind_Resume
LEHE13:
L164:
	leal	-8(%ebp), %esp
	popl	%ebx
	.cfi_restore 3
	popl	%esi
	.cfi_restore 6
	popl	%ebp
	.cfi_restore 5
	.cfi_def_cfa 4, 4
	ret	$4
	.cfi_endproc
LFE4443:
	.section	.gcc_except_table,"w"
LLSDA4443:
	.byte	0xff
	.byte	0xff
	.byte	0x1
	.uleb128 LLSDACSE4443-LLSDACSB4443
LLSDACSB4443:
	.uleb128 LEHB9-LFB4443
	.uleb128 LEHE9-LEHB9
	.uleb128 0
	.uleb128 0
	.uleb128 LEHB10-LFB4443
	.uleb128 LEHE10-LEHB10
	.uleb128 L161-LFB4443
	.uleb128 0
	.uleb128 LEHB11-LFB4443
	.uleb128 LEHE11-LEHB11
	.uleb128 L162-LFB4443
	.uleb128 0
	.uleb128 LEHB12-LFB4443
	.uleb128 LEHE12-LEHB12
	.uleb128 L163-LFB4443
	.uleb128 0
	.uleb128 LEHB13-LFB4443
	.uleb128 LEHE13-LEHB13
	.uleb128 0
	.uleb128 0
LLSDACSE4443:
	.text
	.align 2
	.globl	__ZN2DB8getItemsEPSt6vectorINSt7__cxx1112basic_stringIcSt11char_traitsIcESaIcEEESaIS6_EE
	.def	__ZN2DB8getItemsEPSt6vectorINSt7__cxx1112basic_stringIcSt11char_traitsIcESaIcEEESaIS6_EE;	.scl	2;	.type	32;	.endef
__ZN2DB8getItemsEPSt6vectorINSt7__cxx1112basic_stringIcSt11char_traitsIcESaIcEEESaIS6_EE:
LFB4444:
	.cfi_startproc
	.cfi_personality 0,___gxx_personality_v0
	.cfi_lsda 0,LLSDA4444
	pushl	%ebp
	.cfi_def_cfa_offset 8
	.cfi_offset 5, -8
	movl	%esp, %ebp
	.cfi_def_cfa_register 5
	pushl	%esi
	pushl	%ebx
	subl	$384, %esp
	.cfi_offset 6, -12
	.cfi_offset 3, -16
	movl	%ecx, -348(%ebp)
	leal	-268(%ebp), %eax
	movl	%eax, %ecx
LEHB14:
	call	__ZNSt14basic_ifstreamIcSt11char_traitsIcEEC1Ev
LEHE14:
	leal	-292(%ebp), %eax
	movl	%eax, %ecx
	call	__ZNSt7__cxx1112basic_stringIcSt11char_traitsIcESaIcEEC1Ev
	leal	-304(%ebp), %eax
	movl	%eax, %ecx
	call	__ZNSt6vectorINSt7__cxx1112basic_stringIcSt11char_traitsIcESaIcEEESaIS5_EEC1Ev
	leal	-328(%ebp), %eax
	movl	%eax, %ecx
	call	__ZNSt7__cxx1112basic_stringIcSt11char_traitsIcESaIcEEC1Ev
	leal	-344(%ebp), %eax
	movl	$16, 4(%esp)
	movl	$LC9, (%esp)
	movl	%eax, %ecx
LEHB15:
	call	__ZNSt7__cxx1111basic_regexIcNS_12regex_traitsIcEEEC1EPKcNSt15regex_constants18syntax_option_typeE
LEHE15:
	subl	$8, %esp
	movl	-348(%ebp), %edx
	leal	-268(%ebp), %eax
	movl	$8, 4(%esp)
	movl	%edx, (%esp)
	movl	%eax, %ecx
LEHB16:
	call	__ZNSt14basic_ifstreamIcSt11char_traitsIcEE4openERKNSt7__cxx1112basic_stringIcS1_SaIcEEESt13_Ios_Openmode
	subl	$8, %esp
	leal	-268(%ebp), %eax
	movl	%eax, %ecx
	call	__ZNSt14basic_ifstreamIcSt11char_traitsIcEE7is_openEv
	testb	%al, %al
	je	L166
L168:
	leal	-292(%ebp), %eax
	movl	%eax, 4(%esp)
	leal	-268(%ebp), %eax
	movl	%eax, (%esp)
	call	__ZSt7getlineIcSt11char_traitsIcESaIcEERSt13basic_istreamIT_T0_ES7_RNSt7__cxx1112basic_stringIS4_S5_T1_EE
	movl	(%eax), %edx
	subl	$12, %edx
	movl	(%edx), %edx
	addl	%edx, %eax
	movl	%eax, %ecx
	call	__ZNKSt9basic_iosIcSt11char_traitsIcEEcvbEv
	testb	%al, %al
	je	L167
	leal	-328(%ebp), %eax
	movl	$LC8, (%esp)
	movl	%eax, %ecx
	call	__ZNSt7__cxx1112basic_stringIcSt11char_traitsIcESaIcEEaSEPKc
	subl	$4, %esp
	leal	-292(%ebp), %eax
	movl	%eax, %ecx
	call	__ZNSt7__cxx1112basic_stringIcSt11char_traitsIcESaIcEE3endEv
	movl	%eax, %esi
	leal	-292(%ebp), %eax
	movl	%eax, %ecx
	call	__ZNSt7__cxx1112basic_stringIcSt11char_traitsIcESaIcEE5beginEv
	movl	%eax, %ebx
	leal	-328(%ebp), %eax
	movl	%eax, (%esp)
	call	__ZSt13back_inserterINSt7__cxx1112basic_stringIcSt11char_traitsIcESaIcEEEESt20back_insert_iteratorIT_ERS7_
	movl	%eax, %edx
	movl	$0, 20(%esp)
	movl	$LC8, 16(%esp)
	leal	-344(%ebp), %eax
	movl	%eax, 12(%esp)
	movl	%esi, 8(%esp)
	movl	%ebx, 4(%esp)
	movl	%edx, (%esp)
	call	__ZSt13regex_replaceISt20back_insert_iteratorINSt7__cxx1112basic_stringIcSt11char_traitsIcESaIcEEEEN9__gnu_cxx17__normal_iteratorIPcS6_EENS1_12regex_traitsIcEEcET_SE_T0_SF_RKNS1_11basic_regexIT2_T1_EEPKSH_NSt15regex_constants15match_flag_typeE
	leal	-304(%ebp), %eax
	movl	%eax, %ecx
	call	__ZNSt6vectorINSt7__cxx1112basic_stringIcSt11char_traitsIcESaIcEEESaIS5_EE3endEv
	movl	%eax, -12(%ebp)
	leal	-16(%ebp), %eax
	leal	-12(%ebp), %edx
	movl	%edx, (%esp)
	movl	%eax, %ecx
	call	__ZN9__gnu_cxx17__normal_iteratorIPKNSt7__cxx1112basic_stringIcSt11char_traitsIcESaIcEEESt6vectorIS6_SaIS6_EEEC1IPS6_EERKNS0_IT_NS_11__enable_ifIXsrSt10__are_sameISF_SE_E7__valueESB_E6__typeEEE
	subl	$4, %esp
	leal	-304(%ebp), %eax
	leal	-292(%ebp), %edx
	movl	%edx, 4(%esp)
	movl	-16(%ebp), %edx
	movl	%edx, (%esp)
	movl	%eax, %ecx
	call	__ZNSt6vectorINSt7__cxx1112basic_stringIcSt11char_traitsIcESaIcEEESaIS5_EE6insertEN9__gnu_cxx17__normal_iteratorIPKS5_S7_EERSA_
	subl	$8, %esp
	jmp	L168
L167:
	leal	-268(%ebp), %eax
	movl	%eax, %ecx
	call	__ZNSt14basic_ifstreamIcSt11char_traitsIcEE5closeEv
L166:
	leal	-304(%ebp), %eax
	movl	%eax, (%esp)
	movl	8(%ebp), %ecx
	call	__ZNSt6vectorINSt7__cxx1112basic_stringIcSt11char_traitsIcESaIcEEESaIS5_EEaSERKS7_
LEHE16:
	subl	$4, %esp
	leal	-344(%ebp), %eax
	movl	%eax, %ecx
	call	__ZNSt7__cxx1111basic_regexIcNS_12regex_traitsIcEEED1Ev
	leal	-328(%ebp), %eax
	movl	%eax, %ecx
	call	__ZNSt7__cxx1112basic_stringIcSt11char_traitsIcESaIcEED1Ev
	leal	-304(%ebp), %eax
	movl	%eax, %ecx
	call	__ZNSt6vectorINSt7__cxx1112basic_stringIcSt11char_traitsIcESaIcEEESaIS5_EED1Ev
	leal	-292(%ebp), %eax
	movl	%eax, %ecx
	call	__ZNSt7__cxx1112basic_stringIcSt11char_traitsIcESaIcEED1Ev
	leal	-268(%ebp), %eax
	movl	%eax, %ecx
	call	__ZNSt14basic_ifstreamIcSt11char_traitsIcEED1Ev
	jmp	L173
L172:
	movl	%eax, %ebx
	leal	-344(%ebp), %eax
	movl	%eax, %ecx
	call	__ZNSt7__cxx1111basic_regexIcNS_12regex_traitsIcEEED1Ev
	jmp	L170
L171:
	movl	%eax, %ebx
L170:
	leal	-328(%ebp), %eax
	movl	%eax, %ecx
	call	__ZNSt7__cxx1112basic_stringIcSt11char_traitsIcESaIcEED1Ev
	leal	-304(%ebp), %eax
	movl	%eax, %ecx
	call	__ZNSt6vectorINSt7__cxx1112basic_stringIcSt11char_traitsIcESaIcEEESaIS5_EED1Ev
	leal	-292(%ebp), %eax
	movl	%eax, %ecx
	call	__ZNSt7__cxx1112basic_stringIcSt11char_traitsIcESaIcEED1Ev
	leal	-268(%ebp), %eax
	movl	%eax, %ecx
	call	__ZNSt14basic_ifstreamIcSt11char_traitsIcEED1Ev
	movl	%ebx, %eax
	movl	%eax, (%esp)
LEHB17:
	call	__Unwind_Resume
LEHE17:
L173:
	leal	-8(%ebp), %esp
	popl	%ebx
	.cfi_restore 3
	popl	%esi
	.cfi_restore 6
	popl	%ebp
	.cfi_restore 5
	.cfi_def_cfa 4, 4
	ret	$4
	.cfi_endproc
LFE4444:
	.section	.gcc_except_table,"w"
LLSDA4444:
	.byte	0xff
	.byte	0xff
	.byte	0x1
	.uleb128 LLSDACSE4444-LLSDACSB4444
LLSDACSB4444:
	.uleb128 LEHB14-LFB4444
	.uleb128 LEHE14-LEHB14
	.uleb128 0
	.uleb128 0
	.uleb128 LEHB15-LFB4444
	.uleb128 LEHE15-LEHB15
	.uleb128 L171-LFB4444
	.uleb128 0
	.uleb128 LEHB16-LFB4444
	.uleb128 LEHE16-LEHB16
	.uleb128 L172-LFB4444
	.uleb128 0
	.uleb128 LEHB17-LFB4444
	.uleb128 LEHE17-LEHB17
	.uleb128 0
	.uleb128 0
LLSDACSE4444:
	.text
	.section .rdata,"dr"
LC11:
	.ascii "[\0"
LC12:
	.ascii "]=\0"
	.text
	.align 2
	.globl	__ZN2DB7setItemEPKcS1_
	.def	__ZN2DB7setItemEPKcS1_;	.scl	2;	.type	32;	.endef
__ZN2DB7setItemEPKcS1_:
LFB4445:
	.cfi_startproc
	.cfi_personality 0,___gxx_personality_v0
	.cfi_lsda 0,LLSDA4445
	pushl	%ebp
	.cfi_def_cfa_offset 8
	.cfi_offset 5, -8
	movl	%esp, %ebp
	.cfi_def_cfa_register 5
	pushl	%ebx
	subl	$292, %esp
	.cfi_offset 3, -12
	movl	%ecx, -268(%ebp)
	leal	-256(%ebp), %eax
	movl	%eax, %ecx
LEHB18:
	call	__ZNSt14basic_ofstreamIcSt11char_traitsIcEEC1Ev
LEHE18:
	movl	$1, 4(%esp)
	movl	$16, (%esp)
	call	__ZStorSt13_Ios_OpenmodeS_
	movl	%eax, %ecx
	movl	-268(%ebp), %edx
	leal	-256(%ebp), %eax
	movl	%ecx, 4(%esp)
	movl	%edx, (%esp)
	movl	%eax, %ecx
LEHB19:
	call	__ZNSt14basic_ofstreamIcSt11char_traitsIcEE4openERKNSt7__cxx1112basic_stringIcS1_SaIcEEESt13_Ios_Openmode
	subl	$8, %esp
	leal	-256(%ebp), %eax
	movl	%eax, %ecx
	call	__ZNSt14basic_ofstreamIcSt11char_traitsIcEE7is_openEv
	testb	%al, %al
	je	L175
	movl	$LC11, 4(%esp)
	leal	-256(%ebp), %eax
	movl	%eax, (%esp)
	call	__ZStlsISt11char_traitsIcEERSt13basic_ostreamIcT_ES5_PKc
	movl	%eax, %edx
	movl	8(%ebp), %eax
	movl	%eax, 4(%esp)
	movl	%edx, (%esp)
	call	__ZStlsISt11char_traitsIcEERSt13basic_ostreamIcT_ES5_PKc
	movl	$LC12, 4(%esp)
	movl	%eax, (%esp)
	call	__ZStlsISt11char_traitsIcEERSt13basic_ostreamIcT_ES5_PKc
	movl	%eax, %edx
	movl	12(%ebp), %eax
	movl	%eax, 4(%esp)
	movl	%edx, (%esp)
	call	__ZStlsISt11char_traitsIcEERSt13basic_ostreamIcT_ES5_PKc
	movl	$LC10, 4(%esp)
	movl	%eax, (%esp)
	call	__ZStlsISt11char_traitsIcEERSt13basic_ostreamIcT_ES5_PKc
	leal	-256(%ebp), %eax
	movl	%eax, %ecx
	call	__ZNSt14basic_ofstreamIcSt11char_traitsIcEE5closeEv
LEHE19:
L175:
	leal	-256(%ebp), %eax
	movl	%eax, %ecx
	call	__ZNSt14basic_ofstreamIcSt11char_traitsIcEED1Ev
	jmp	L178
L177:
	movl	%eax, %ebx
	leal	-256(%ebp), %eax
	movl	%eax, %ecx
	call	__ZNSt14basic_ofstreamIcSt11char_traitsIcEED1Ev
	movl	%ebx, %eax
	movl	%eax, (%esp)
LEHB20:
	call	__Unwind_Resume
LEHE20:
L178:
	movl	-4(%ebp), %ebx
	leave
	.cfi_restore 5
	.cfi_restore 3
	.cfi_def_cfa 4, 4
	ret	$8
	.cfi_endproc
LFE4445:
	.section	.gcc_except_table,"w"
LLSDA4445:
	.byte	0xff
	.byte	0xff
	.byte	0x1
	.uleb128 LLSDACSE4445-LLSDACSB4445
LLSDACSB4445:
	.uleb128 LEHB18-LFB4445
	.uleb128 LEHE18-LEHB18
	.uleb128 0
	.uleb128 0
	.uleb128 LEHB19-LFB4445
	.uleb128 LEHE19-LEHB19
	.uleb128 L177-LFB4445
	.uleb128 0
	.uleb128 LEHB20-LFB4445
	.uleb128 LEHE20-LEHB20
	.uleb128 0
	.uleb128 0
LLSDACSE4445:
	.text
	.section .rdata,"dr"
LC13:
	.ascii "\\[[^\\[\\]\\=]+\\]\\=(.?)*\0"
	.text
	.align 2
	.globl	__ZN2DB9patchItemEv
	.def	__ZN2DB9patchItemEv;	.scl	2;	.type	32;	.endef
__ZN2DB9patchItemEv:
LFB4446:
	.cfi_startproc
	.cfi_personality 0,___gxx_personality_v0
	.cfi_lsda 0,LLSDA4446
	pushl	%ebp
	.cfi_def_cfa_offset 8
	.cfi_offset 5, -8
	movl	%esp, %ebp
	.cfi_def_cfa_register 5
	pushl	%ebx
	subl	$724, %esp
	.cfi_offset 3, -12
	movl	%ecx, -684(%ebp)
	leal	-332(%ebp), %eax
	movl	%eax, %ecx
LEHB21:
	call	__ZNSt14basic_ifstreamIcSt11char_traitsIcEEC1Ev
LEHE21:
	leal	-356(%ebp), %eax
	movl	%eax, %ecx
	call	__ZNSt7__cxx1112basic_stringIcSt11char_traitsIcESaIcEEC1Ev
	leal	-372(%ebp), %eax
	movl	$16, 4(%esp)
	movl	$LC13, (%esp)
	movl	%eax, %ecx
LEHB22:
	call	__ZNSt7__cxx1111basic_regexIcNS_12regex_traitsIcEEEC1EPKcNSt15regex_constants18syntax_option_typeE
LEHE22:
	subl	$8, %esp
	leal	-384(%ebp), %eax
	movl	%eax, %ecx
	call	__ZNSt6vectorINSt7__cxx1112basic_stringIcSt11char_traitsIcESaIcEEESaIS5_EEC1Ev
	leal	-632(%ebp), %eax
	movl	%eax, %ecx
LEHB23:
	call	__ZNSt14basic_ofstreamIcSt11char_traitsIcEEC1Ev
LEHE23:
	movl	-684(%ebp), %edx
	leal	-332(%ebp), %eax
	movl	$8, 4(%esp)
	movl	%edx, (%esp)
	movl	%eax, %ecx
LEHB24:
	call	__ZNSt14basic_ifstreamIcSt11char_traitsIcEE4openERKNSt7__cxx1112basic_stringIcS1_SaIcEEESt13_Ios_Openmode
	subl	$8, %esp
	leal	-332(%ebp), %eax
	movl	%eax, %ecx
	call	__ZNSt14basic_ifstreamIcSt11char_traitsIcEE7is_openEv
	testb	%al, %al
	je	L180
L187:
	leal	-356(%ebp), %eax
	movl	%eax, 4(%esp)
	leal	-332(%ebp), %eax
	movl	%eax, (%esp)
	call	__ZSt7getlineIcSt11char_traitsIcESaIcEERSt13basic_istreamIT_T0_ES7_RNSt7__cxx1112basic_stringIS4_S5_T1_EE
	movl	(%eax), %edx
	subl	$12, %edx
	movl	(%edx), %edx
	addl	%edx, %eax
	movl	%eax, %ecx
	call	__ZNKSt9basic_iosIcSt11char_traitsIcEEcvbEv
	testb	%al, %al
	je	L181
	leal	-356(%ebp), %eax
	movl	%eax, %ecx
	call	__ZNSt7__cxx1112basic_stringIcSt11char_traitsIcESaIcEE3endEv
	movl	%eax, %ebx
	leal	-356(%ebp), %eax
	movl	%eax, %ecx
	call	__ZNSt7__cxx1112basic_stringIcSt11char_traitsIcESaIcEE5beginEv
	movl	%eax, %edx
	movl	$0, 12(%esp)
	leal	-372(%ebp), %eax
	movl	%eax, 8(%esp)
	movl	%ebx, 4(%esp)
	movl	%edx, (%esp)
	call	__ZSt11regex_matchIN9__gnu_cxx17__normal_iteratorIPcNSt7__cxx1112basic_stringIcSt11char_traitsIcESaIcEEEEEcNS3_12regex_traitsIcEEEbT_SC_RKNS3_11basic_regexIT0_T1_EENSt15regex_constants15match_flag_typeE
LEHE24:
	xorl	$1, %eax
	testb	%al, %al
	je	L182
	leal	-77(%ebp), %eax
	movl	%eax, %ecx
	call	__ZNSaINSt7__cxx119sub_matchIN9__gnu_cxx17__normal_iteratorIPKcNS_12basic_stringIcSt11char_traitsIcESaIcEEEEEEEEC1Ev
	leal	-648(%ebp), %eax
	leal	-77(%ebp), %edx
	movl	%edx, (%esp)
	movl	%eax, %ecx
	call	__ZNSt7__cxx1113match_resultsIN9__gnu_cxx17__normal_iteratorIPKcNS_12basic_stringIcSt11char_traitsIcESaIcEEEEESaINS_9sub_matchISA_EEEEC1ERKSD_
	subl	$4, %esp
	leal	-77(%ebp), %eax
	movl	%eax, %ecx
	call	__ZNSaINSt7__cxx119sub_matchIN9__gnu_cxx17__normal_iteratorIPKcNS_12basic_stringIcSt11char_traitsIcESaIcEEEEEEEED1Ev
	leal	-672(%ebp), %eax
	leal	-356(%ebp), %edx
	movl	%edx, (%esp)
	movl	%eax, %ecx
LEHB25:
	call	__ZNSt7__cxx1112basic_stringIcSt11char_traitsIcESaIcEEC1ERKS4_
LEHE25:
	subl	$4, %esp
	leal	-672(%ebp), %eax
	movl	%eax, %ecx
	call	__ZNKSt7__cxx1112basic_stringIcSt11char_traitsIcESaIcEE3endEv
	movl	%eax, %ebx
	leal	-672(%ebp), %eax
	movl	%eax, %ecx
	call	__ZNKSt7__cxx1112basic_stringIcSt11char_traitsIcESaIcEE5beginEv
	movl	%eax, %edx
	movl	$0, 16(%esp)
	leal	-372(%ebp), %eax
	movl	%eax, 12(%esp)
	leal	-648(%ebp), %eax
	movl	%eax, 8(%esp)
	movl	%ebx, 4(%esp)
	movl	%edx, (%esp)
LEHB26:
	call	__ZSt12regex_searchIN9__gnu_cxx17__normal_iteratorIPKcNSt7__cxx1112basic_stringIcSt11char_traitsIcESaIcEEEEESaINS4_9sub_matchISA_EEEcNS4_12regex_traitsIcEEEbT_SG_RNS4_13match_resultsISG_T0_EERKNS4_11basic_regexIT1_T2_EENSt15regex_constants15match_flag_typeE
	leal	-648(%ebp), %eax
	movl	$0, (%esp)
	movl	%eax, %ecx
	call	__ZNKSt7__cxx1113match_resultsIN9__gnu_cxx17__normal_iteratorIPKcNS_12basic_stringIcSt11char_traitsIcESaIcEEEEESaINS_9sub_matchISA_EEEEixEj
	subl	$4, %esp
	movl	%eax, %edx
	leal	-76(%ebp), %eax
	movl	%edx, (%esp)
	movl	%eax, %ecx
	call	__ZNKSt7__cxx119sub_matchIN9__gnu_cxx17__normal_iteratorIPKcNS_12basic_stringIcSt11char_traitsIcESaIcEEEEEEcvS9_Ev
LEHE26:
	subl	$4, %esp
	leal	-384(%ebp), %eax
	movl	%eax, %ecx
	call	__ZNSt6vectorINSt7__cxx1112basic_stringIcSt11char_traitsIcESaIcEEESaIS5_EE3endEv
	movl	%eax, -48(%ebp)
	leal	-52(%ebp), %eax
	leal	-48(%ebp), %edx
	movl	%edx, (%esp)
	movl	%eax, %ecx
	call	__ZN9__gnu_cxx17__normal_iteratorIPKNSt7__cxx1112basic_stringIcSt11char_traitsIcESaIcEEESt6vectorIS6_SaIS6_EEEC1IPS6_EERKNS0_IT_NS_11__enable_ifIXsrSt10__are_sameISF_SE_E7__valueESB_E6__typeEEE
	subl	$4, %esp
	leal	-384(%ebp), %eax
	leal	-76(%ebp), %edx
	movl	%edx, 4(%esp)
	movl	-52(%ebp), %edx
	movl	%edx, (%esp)
	movl	%eax, %ecx
LEHB27:
	call	__ZNSt6vectorINSt7__cxx1112basic_stringIcSt11char_traitsIcESaIcEEESaIS5_EE6insertEN9__gnu_cxx17__normal_iteratorIPKS5_S7_EEOS5_
LEHE27:
	subl	$8, %esp
	leal	-76(%ebp), %eax
	movl	%eax, %ecx
	call	__ZNSt7__cxx1112basic_stringIcSt11char_traitsIcESaIcEED1Ev
	leal	-672(%ebp), %eax
	movl	%eax, %ecx
	call	__ZNSt7__cxx1112basic_stringIcSt11char_traitsIcESaIcEED1Ev
	leal	-648(%ebp), %eax
	movl	%eax, %ecx
	call	__ZNSt7__cxx1113match_resultsIN9__gnu_cxx17__normal_iteratorIPKcNS_12basic_stringIcSt11char_traitsIcESaIcEEEEESaINS_9sub_matchISA_EEEED1Ev
	jmp	L187
L182:
	movl	$0, -24(%ebp)
	movl	$0, -12(%ebp)
	leal	-384(%ebp), %eax
	movl	%eax, %ecx
	call	__ZNKSt6vectorINSt7__cxx1112basic_stringIcSt11char_traitsIcESaIcEEESaIS5_EE4sizeEv
	movl	%eax, -28(%ebp)
	movl	$0, -16(%ebp)
L186:
	movl	-16(%ebp), %eax
	cmpl	-28(%ebp), %eax
	jnb	L184
	leal	-384(%ebp), %eax
	movl	-16(%ebp), %edx
	movl	%edx, (%esp)
	movl	%eax, %ecx
	call	__ZNSt6vectorINSt7__cxx1112basic_stringIcSt11char_traitsIcESaIcEEESaIS5_EEixEj
	subl	$4, %esp
	movl	%eax, %edx
	leal	-356(%ebp), %eax
	movl	%eax, 4(%esp)
	movl	%edx, (%esp)
	call	__ZSteqIcEN9__gnu_cxx11__enable_ifIXsrSt9__is_charIT_E7__valueEbE6__typeERKNSt7__cxx1112basic_stringIS3_St11char_traitsIS3_ESaIS3_EEESE_
	testb	%al, %al
	je	L185
	addl	$1, -12(%ebp)
L185:
	addl	$1, -16(%ebp)
	jmp	L186
L184:
	cmpl	$0, -12(%ebp)
	jne	L187
	leal	-384(%ebp), %eax
	movl	%eax, %ecx
	call	__ZNSt6vectorINSt7__cxx1112basic_stringIcSt11char_traitsIcESaIcEEESaIS5_EE3endEv
	movl	%eax, -40(%ebp)
	leal	-44(%ebp), %eax
	leal	-40(%ebp), %edx
	movl	%edx, (%esp)
	movl	%eax, %ecx
	call	__ZN9__gnu_cxx17__normal_iteratorIPKNSt7__cxx1112basic_stringIcSt11char_traitsIcESaIcEEESt6vectorIS6_SaIS6_EEEC1IPS6_EERKNS0_IT_NS_11__enable_ifIXsrSt10__are_sameISF_SE_E7__valueESB_E6__typeEEE
	subl	$4, %esp
	leal	-384(%ebp), %eax
	leal	-356(%ebp), %edx
	movl	%edx, 4(%esp)
	movl	-44(%ebp), %edx
	movl	%edx, (%esp)
	movl	%eax, %ecx
LEHB28:
	call	__ZNSt6vectorINSt7__cxx1112basic_stringIcSt11char_traitsIcESaIcEEESaIS5_EE6insertEN9__gnu_cxx17__normal_iteratorIPKS5_S7_EERSA_
	subl	$8, %esp
	jmp	L187
L181:
	movl	$32, 4(%esp)
	movl	$16, (%esp)
	call	__ZStorSt13_Ios_OpenmodeS_
	movl	%eax, %ecx
	movl	-684(%ebp), %edx
	leal	-632(%ebp), %eax
	movl	%ecx, 4(%esp)
	movl	%edx, (%esp)
	movl	%eax, %ecx
	call	__ZNSt14basic_ofstreamIcSt11char_traitsIcEE4openERKNSt7__cxx1112basic_stringIcS1_SaIcEEESt13_Ios_Openmode
	subl	$8, %esp
	leal	-632(%ebp), %eax
	movl	%eax, %ecx
	call	__ZNSt14basic_ofstreamIcSt11char_traitsIcEE7is_openEv
	testb	%al, %al
	je	L180
	movl	$0, -32(%ebp)
	leal	-384(%ebp), %eax
	movl	%eax, %ecx
	call	__ZNKSt6vectorINSt7__cxx1112basic_stringIcSt11char_traitsIcESaIcEEESaIS5_EE4sizeEv
	movl	%eax, -36(%ebp)
	movl	$0, -20(%ebp)
L191:
	movl	-20(%ebp), %eax
	cmpl	-36(%ebp), %eax
	jnb	L189
	leal	-384(%ebp), %eax
	movl	-20(%ebp), %edx
	movl	%edx, (%esp)
	movl	%eax, %ecx
	call	__ZNSt6vectorINSt7__cxx1112basic_stringIcSt11char_traitsIcESaIcEEESaIS5_EEixEj
	subl	$4, %esp
	movl	$LC8, 4(%esp)
	movl	%eax, (%esp)
	call	__ZStneIcSt11char_traitsIcESaIcEEbRKNSt7__cxx1112basic_stringIT_T0_T1_EEPKS5_
	testb	%al, %al
	je	L190
	leal	-384(%ebp), %eax
	movl	-20(%ebp), %edx
	movl	%edx, (%esp)
	movl	%eax, %ecx
	call	__ZNSt6vectorINSt7__cxx1112basic_stringIcSt11char_traitsIcESaIcEEESaIS5_EEixEj
	subl	$4, %esp
	movl	%eax, 4(%esp)
	leal	-632(%ebp), %eax
	movl	%eax, (%esp)
	call	__ZStlsIcSt11char_traitsIcESaIcEERSt13basic_ostreamIT_T0_ES7_RKNSt7__cxx1112basic_stringIS4_S5_T1_EE
	movl	$LC10, 4(%esp)
	movl	%eax, (%esp)
	call	__ZStlsISt11char_traitsIcEERSt13basic_ostreamIcT_ES5_PKc
L190:
	addl	$1, -20(%ebp)
	jmp	L191
L189:
	leal	-632(%ebp), %eax
	movl	%eax, %ecx
	call	__ZNSt14basic_ofstreamIcSt11char_traitsIcEE5closeEv
LEHE28:
L180:
	leal	-632(%ebp), %eax
	movl	%eax, %ecx
	call	__ZNSt14basic_ofstreamIcSt11char_traitsIcEED1Ev
	leal	-384(%ebp), %eax
	movl	%eax, %ecx
	call	__ZNSt6vectorINSt7__cxx1112basic_stringIcSt11char_traitsIcESaIcEEESaIS5_EED1Ev
	leal	-372(%ebp), %eax
	movl	%eax, %ecx
	call	__ZNSt7__cxx1111basic_regexIcNS_12regex_traitsIcEEED1Ev
	leal	-356(%ebp), %eax
	movl	%eax, %ecx
	call	__ZNSt7__cxx1112basic_stringIcSt11char_traitsIcESaIcEED1Ev
	leal	-332(%ebp), %eax
	movl	%eax, %ecx
	call	__ZNSt14basic_ifstreamIcSt11char_traitsIcEED1Ev
	jmp	L204
L203:
	movl	%eax, %ebx
	leal	-76(%ebp), %eax
	movl	%eax, %ecx
	call	__ZNSt7__cxx1112basic_stringIcSt11char_traitsIcESaIcEED1Ev
	jmp	L193
L202:
	movl	%eax, %ebx
L193:
	leal	-672(%ebp), %eax
	movl	%eax, %ecx
	call	__ZNSt7__cxx1112basic_stringIcSt11char_traitsIcESaIcEED1Ev
	jmp	L194
L201:
	movl	%eax, %ebx
L194:
	leal	-648(%ebp), %eax
	movl	%eax, %ecx
	call	__ZNSt7__cxx1113match_resultsIN9__gnu_cxx17__normal_iteratorIPKcNS_12basic_stringIcSt11char_traitsIcESaIcEEEEESaINS_9sub_matchISA_EEEED1Ev
	jmp	L195
L200:
	movl	%eax, %ebx
L195:
	leal	-632(%ebp), %eax
	movl	%eax, %ecx
	call	__ZNSt14basic_ofstreamIcSt11char_traitsIcEED1Ev
	jmp	L196
L199:
	movl	%eax, %ebx
L196:
	leal	-384(%ebp), %eax
	movl	%eax, %ecx
	call	__ZNSt6vectorINSt7__cxx1112basic_stringIcSt11char_traitsIcESaIcEEESaIS5_EED1Ev
	leal	-372(%ebp), %eax
	movl	%eax, %ecx
	call	__ZNSt7__cxx1111basic_regexIcNS_12regex_traitsIcEEED1Ev
	jmp	L197
L198:
	movl	%eax, %ebx
L197:
	leal	-356(%ebp), %eax
	movl	%eax, %ecx
	call	__ZNSt7__cxx1112basic_stringIcSt11char_traitsIcESaIcEED1Ev
	leal	-332(%ebp), %eax
	movl	%eax, %ecx
	call	__ZNSt14basic_ifstreamIcSt11char_traitsIcEED1Ev
	movl	%ebx, %eax
	movl	%eax, (%esp)
LEHB29:
	call	__Unwind_Resume
LEHE29:
L204:
	movl	-4(%ebp), %ebx
	leave
	.cfi_restore 5
	.cfi_restore 3
	.cfi_def_cfa 4, 4
	ret
	.cfi_endproc
LFE4446:
	.section	.gcc_except_table,"w"
LLSDA4446:
	.byte	0xff
	.byte	0xff
	.byte	0x1
	.uleb128 LLSDACSE4446-LLSDACSB4446
LLSDACSB4446:
	.uleb128 LEHB21-LFB4446
	.uleb128 LEHE21-LEHB21
	.uleb128 0
	.uleb128 0
	.uleb128 LEHB22-LFB4446
	.uleb128 LEHE22-LEHB22
	.uleb128 L198-LFB4446
	.uleb128 0
	.uleb128 LEHB23-LFB4446
	.uleb128 LEHE23-LEHB23
	.uleb128 L199-LFB4446
	.uleb128 0
	.uleb128 LEHB24-LFB4446
	.uleb128 LEHE24-LEHB24
	.uleb128 L200-LFB4446
	.uleb128 0
	.uleb128 LEHB25-LFB4446
	.uleb128 LEHE25-LEHB25
	.uleb128 L201-LFB4446
	.uleb128 0
	.uleb128 LEHB26-LFB4446
	.uleb128 LEHE26-LEHB26
	.uleb128 L202-LFB4446
	.uleb128 0
	.uleb128 LEHB27-LFB4446
	.uleb128 LEHE27-LEHB27
	.uleb128 L203-LFB4446
	.uleb128 0
	.uleb128 LEHB28-LFB4446
	.uleb128 LEHE28-LEHB28
	.uleb128 L200-LFB4446
	.uleb128 0
	.uleb128 LEHB29-LFB4446
	.uleb128 LEHE29-LEHB29
	.uleb128 0
	.uleb128 0
LLSDACSE4446:
	.text
	.align 2
	.globl	__ZN2DBD2Ev
	.def	__ZN2DBD2Ev;	.scl	2;	.type	32;	.endef
__ZN2DBD2Ev:
LFB4448:
	.cfi_startproc
	.cfi_personality 0,___gxx_personality_v0
	.cfi_lsda 0,LLSDA4448
	pushl	%ebp
	.cfi_def_cfa_offset 8
	.cfi_offset 5, -8
	movl	%esp, %ebp
	.cfi_def_cfa_register 5
	subl	$24, %esp
	movl	%ecx, -12(%ebp)
	movl	-12(%ebp), %eax
	movl	%eax, %ecx
	call	__ZN2DB9patchItemEv
	movl	-12(%ebp), %eax
	movl	%eax, %ecx
	call	__ZNSt7__cxx1112basic_stringIcSt11char_traitsIcESaIcEED1Ev
	nop
	leave
	.cfi_restore 5
	.cfi_def_cfa 4, 4
	ret
	.cfi_endproc
LFE4448:
	.section	.gcc_except_table,"w"
LLSDA4448:
	.byte	0xff
	.byte	0xff
	.byte	0x1
	.uleb128 LLSDACSE4448-LLSDACSB4448
LLSDACSB4448:
LLSDACSE4448:
	.text
	.globl	__ZN2DBD1Ev
	.def	__ZN2DBD1Ev;	.scl	2;	.type	32;	.endef
	.set	__ZN2DBD1Ev,__ZN2DBD2Ev
	.globl	__Z13StrToIntergerPKc
	.def	__Z13StrToIntergerPKc;	.scl	2;	.type	32;	.endef
__Z13StrToIntergerPKc:
LFB4450:
	.cfi_startproc
	.cfi_personality 0,___gxx_personality_v0
	.cfi_lsda 0,LLSDA4450
	pushl	%ebp
	.cfi_def_cfa_offset 8
	.cfi_offset 5, -8
	movl	%esp, %ebp
	.cfi_def_cfa_register 5
	pushl	%ebx
	subl	$100, %esp
	.cfi_offset 3, -12
	leal	-84(%ebp), %eax
	movl	%eax, %ecx
	call	__ZNSt7__cxx1112basic_stringIcSt11char_traitsIcESaIcEEC1Ev
	movl	$0, -12(%ebp)
L210:
	movl	-12(%ebp), %edx
	movl	8(%ebp), %eax
	addl	%edx, %eax
	movzbl	(%eax), %eax
	testb	%al, %al
	je	L207
	movl	-12(%ebp), %edx
	movl	8(%ebp), %eax
	addl	%edx, %eax
	movzbl	(%eax), %eax
	testb	%al, %al
	jle	L217
	movl	-12(%ebp), %edx
	movl	8(%ebp), %eax
	addl	%edx, %eax
	movzbl	(%eax), %eax
	movsbl	%al, %edx
	leal	-36(%ebp), %eax
	movl	%edx, 4(%esp)
	movl	%eax, (%esp)
LEHB30:
	call	__ZNSt7__cxx119to_stringEi
LEHE30:
	leal	-60(%ebp), %eax
	leal	-36(%ebp), %edx
	movl	%edx, 8(%esp)
	leal	-84(%ebp), %edx
	movl	%edx, 4(%esp)
	movl	%eax, (%esp)
LEHB31:
	call	__ZStplIcSt11char_traitsIcESaIcEENSt7__cxx1112basic_stringIT_T0_T1_EERKS8_OS8_
LEHE31:
	leal	-84(%ebp), %eax
	leal	-60(%ebp), %edx
	movl	%edx, (%esp)
	movl	%eax, %ecx
	call	__ZNSt7__cxx1112basic_stringIcSt11char_traitsIcESaIcEEaSEOS4_
	subl	$4, %esp
	leal	-60(%ebp), %eax
	movl	%eax, %ecx
	call	__ZNSt7__cxx1112basic_stringIcSt11char_traitsIcESaIcEED1Ev
	leal	-36(%ebp), %eax
	movl	%eax, %ecx
	call	__ZNSt7__cxx1112basic_stringIcSt11char_traitsIcESaIcEED1Ev
	addl	$1, -12(%ebp)
	jmp	L210
L217:
	nop
L207:
	leal	-84(%ebp), %eax
	movl	%eax, %ecx
	call	__ZNKSt7__cxx1112basic_stringIcSt11char_traitsIcESaIcEE4dataEv
	movl	%eax, (%esp)
	call	_atoi
	movl	%eax, %ebx
	leal	-84(%ebp), %eax
	movl	%eax, %ecx
	call	__ZNSt7__cxx1112basic_stringIcSt11char_traitsIcESaIcEED1Ev
	movl	%ebx, %eax
	jmp	L216
L215:
	movl	%eax, %ebx
	leal	-36(%ebp), %eax
	movl	%eax, %ecx
	call	__ZNSt7__cxx1112basic_stringIcSt11char_traitsIcESaIcEED1Ev
	jmp	L213
L214:
	movl	%eax, %ebx
L213:
	leal	-84(%ebp), %eax
	movl	%eax, %ecx
	call	__ZNSt7__cxx1112basic_stringIcSt11char_traitsIcESaIcEED1Ev
	movl	%ebx, %eax
	movl	%eax, (%esp)
LEHB32:
	call	__Unwind_Resume
LEHE32:
L216:
	movl	-4(%ebp), %ebx
	leave
	.cfi_restore 5
	.cfi_restore 3
	.cfi_def_cfa 4, 4
	ret
	.cfi_endproc
LFE4450:
	.section	.gcc_except_table,"w"
LLSDA4450:
	.byte	0xff
	.byte	0xff
	.byte	0x1
	.uleb128 LLSDACSE4450-LLSDACSB4450
LLSDACSB4450:
	.uleb128 LEHB30-LFB4450
	.uleb128 LEHE30-LEHB30
	.uleb128 L214-LFB4450
	.uleb128 0
	.uleb128 LEHB31-LFB4450
	.uleb128 LEHE31-LEHB31
	.uleb128 L215-LFB4450
	.uleb128 0
	.uleb128 LEHB32-LFB4450
	.uleb128 LEHE32-LEHB32
	.uleb128 0
	.uleb128 0
LLSDACSE4450:
	.text
	.section	.text$_Z7str2intPKci,"x"
	.linkonce discard
	.globl	__Z7str2intPKci
	.def	__Z7str2intPKci;	.scl	2;	.type	32;	.endef
__Z7str2intPKci:
LFB4454:
	.cfi_startproc
	pushl	%ebp
	.cfi_def_cfa_offset 8
	.cfi_offset 5, -8
	movl	%esp, %ebp
	.cfi_def_cfa_register 5
	subl	$24, %esp
	movl	12(%ebp), %edx
	movl	8(%ebp), %eax
	addl	%edx, %eax
	movzbl	(%eax), %eax
	testb	%al, %al
	je	L219
	movl	12(%ebp), %eax
	addl	$1, %eax
	movl	%eax, 4(%esp)
	movl	8(%ebp), %eax
	movl	%eax, (%esp)
	call	__Z7str2intPKci
	movl	%eax, %edx
	movl	%edx, %eax
	sall	$5, %eax
	leal	(%eax,%edx), %ecx
	movl	12(%ebp), %edx
	movl	8(%ebp), %eax
	addl	%edx, %eax
	movzbl	(%eax), %eax
	movsbl	%al, %eax
	xorl	%ecx, %eax
	jmp	L221
L219:
	movl	$5381, %eax
L221:
	leave
	.cfi_restore 5
	.cfi_def_cfa 4, 4
	ret
	.cfi_endproc
LFE4454:
	.text
	.globl	__Z4list2DB
	.def	__Z4list2DB;	.scl	2;	.type	32;	.endef
__Z4list2DB:
LFB4455:
	.cfi_startproc
	.cfi_personality 0,___gxx_personality_v0
	.cfi_lsda 0,LLSDA4455
	pushl	%ebp
	.cfi_def_cfa_offset 8
	.cfi_offset 5, -8
	movl	%esp, %ebp
	.cfi_def_cfa_register 5
	pushl	%ebx
	subl	$52, %esp
	.cfi_offset 3, -12
	leal	-28(%ebp), %eax
	movl	%eax, %ecx
	call	__ZNSt6vectorINSt7__cxx1112basic_stringIcSt11char_traitsIcESaIcEEESaIS5_EEC1Ev
	leal	-28(%ebp), %eax
	movl	%eax, (%esp)
	movl	8(%ebp), %ecx
LEHB33:
	call	__ZN2DB8getItemsEPSt6vectorINSt7__cxx1112basic_stringIcSt11char_traitsIcESaIcEEESaIS6_EE
	subl	$4, %esp
	leal	-28(%ebp), %eax
	movl	%eax, %ecx
	call	__ZNKSt6vectorINSt7__cxx1112basic_stringIcSt11char_traitsIcESaIcEEESaIS5_EE4sizeEv
	movl	%eax, -16(%ebp)
	movl	$0, -12(%ebp)
L224:
	movl	-12(%ebp), %eax
	cmpl	-16(%ebp), %eax
	jnb	L223
	leal	-28(%ebp), %eax
	movl	-12(%ebp), %edx
	movl	%edx, (%esp)
	movl	%eax, %ecx
	call	__ZNSt6vectorINSt7__cxx1112basic_stringIcSt11char_traitsIcESaIcEEESaIS5_EEixEj
	subl	$4, %esp
	movl	%eax, 4(%esp)
	movl	$__ZSt4cout, (%esp)
	call	__ZStlsIcSt11char_traitsIcESaIcEERSt13basic_ostreamIT_T0_ES7_RKNSt7__cxx1112basic_stringIS4_S5_T1_EE
	movl	$__ZSt4endlIcSt11char_traitsIcEERSt13basic_ostreamIT_T0_ES6_, (%esp)
	movl	%eax, %ecx
	call	__ZNSolsEPFRSoS_E
LEHE33:
	subl	$4, %esp
	addl	$1, -12(%ebp)
	jmp	L224
L223:
	leal	-28(%ebp), %eax
	movl	%eax, %ecx
	call	__ZNSt6vectorINSt7__cxx1112basic_stringIcSt11char_traitsIcESaIcEEESaIS5_EED1Ev
	jmp	L227
L226:
	movl	%eax, %ebx
	leal	-28(%ebp), %eax
	movl	%eax, %ecx
	call	__ZNSt6vectorINSt7__cxx1112basic_stringIcSt11char_traitsIcESaIcEEESaIS5_EED1Ev
	movl	%ebx, %eax
	movl	%eax, (%esp)
LEHB34:
	call	__Unwind_Resume
LEHE34:
L227:
	movl	-4(%ebp), %ebx
	leave
	.cfi_restore 5
	.cfi_restore 3
	.cfi_def_cfa 4, 4
	ret
	.cfi_endproc
LFE4455:
	.section	.gcc_except_table,"w"
LLSDA4455:
	.byte	0xff
	.byte	0xff
	.byte	0x1
	.uleb128 LLSDACSE4455-LLSDACSB4455
LLSDACSB4455:
	.uleb128 LEHB33-LFB4455
	.uleb128 LEHE33-LEHB33
	.uleb128 L226-LFB4455
	.uleb128 0
	.uleb128 LEHB34-LFB4455
	.uleb128 LEHE34-LEHB34
	.uleb128 0
	.uleb128 0
LLSDACSE4455:
	.text
	.section .rdata,"dr"
LC14:
	.ascii "[KEY]>\0"
	.text
	.globl	__Z6remove2DB
	.def	__Z6remove2DB;	.scl	2;	.type	32;	.endef
__Z6remove2DB:
LFB4456:
	.cfi_startproc
	.cfi_personality 0,___gxx_personality_v0
	.cfi_lsda 0,LLSDA4456
	pushl	%ebp
	.cfi_def_cfa_offset 8
	.cfi_offset 5, -8
	movl	%esp, %ebp
	.cfi_def_cfa_register 5
	pushl	%ebx
	subl	$52, %esp
	.cfi_offset 3, -12
	leal	-32(%ebp), %eax
	movl	%eax, %ecx
	call	__ZNSt7__cxx1112basic_stringIcSt11char_traitsIcESaIcEEC1Ev
	movl	$LC14, 4(%esp)
	movl	$__ZSt4cout, (%esp)
LEHB35:
	call	__ZStlsISt11char_traitsIcEERSt13basic_ostreamIcT_ES5_PKc
	leal	-32(%ebp), %eax
	movl	%eax, 4(%esp)
	movl	$__ZSt3cin, (%esp)
	call	__ZSt7getlineIcSt11char_traitsIcESaIcEERSt13basic_istreamIT_T0_ES7_RNSt7__cxx1112basic_stringIS4_S5_T1_EE
	leal	-32(%ebp), %eax
	movl	%eax, %ecx
	call	__ZNKSt7__cxx1112basic_stringIcSt11char_traitsIcESaIcEE4dataEv
	movl	%eax, (%esp)
	movl	8(%ebp), %ecx
	call	__ZN2DB10removeItemEPKc
LEHE35:
	subl	$4, %esp
	leal	-32(%ebp), %eax
	movl	%eax, %ecx
	call	__ZNSt7__cxx1112basic_stringIcSt11char_traitsIcESaIcEED1Ev
	jmp	L231
L230:
	movl	%eax, %ebx
	leal	-32(%ebp), %eax
	movl	%eax, %ecx
	call	__ZNSt7__cxx1112basic_stringIcSt11char_traitsIcESaIcEED1Ev
	movl	%ebx, %eax
	movl	%eax, (%esp)
LEHB36:
	call	__Unwind_Resume
LEHE36:
L231:
	movl	-4(%ebp), %ebx
	leave
	.cfi_restore 5
	.cfi_restore 3
	.cfi_def_cfa 4, 4
	ret
	.cfi_endproc
LFE4456:
	.section	.gcc_except_table,"w"
LLSDA4456:
	.byte	0xff
	.byte	0xff
	.byte	0x1
	.uleb128 LLSDACSE4456-LLSDACSB4456
LLSDACSB4456:
	.uleb128 LEHB35-LFB4456
	.uleb128 LEHE35-LEHB35
	.uleb128 L230-LFB4456
	.uleb128 0
	.uleb128 LEHB36-LFB4456
	.uleb128 LEHE36-LEHB36
	.uleb128 0
	.uleb128 0
LLSDACSE4456:
	.text
	.globl	__Z3get2DB
	.def	__Z3get2DB;	.scl	2;	.type	32;	.endef
__Z3get2DB:
LFB4457:
	.cfi_startproc
	.cfi_personality 0,___gxx_personality_v0
	.cfi_lsda 0,LLSDA4457
	pushl	%ebp
	.cfi_def_cfa_offset 8
	.cfi_offset 5, -8
	movl	%esp, %ebp
	.cfi_def_cfa_register 5
	pushl	%ebx
	subl	$68, %esp
	.cfi_offset 3, -12
	leal	-56(%ebp), %eax
	movl	%eax, %ecx
	call	__ZNSt7__cxx1112basic_stringIcSt11char_traitsIcESaIcEEC1Ev
	movl	$LC14, 4(%esp)
	movl	$__ZSt4cout, (%esp)
LEHB37:
	call	__ZStlsISt11char_traitsIcEERSt13basic_ostreamIcT_ES5_PKc
	leal	-56(%ebp), %eax
	movl	%eax, 4(%esp)
	movl	$__ZSt3cin, (%esp)
	call	__ZSt7getlineIcSt11char_traitsIcESaIcEERSt13basic_istreamIT_T0_ES7_RNSt7__cxx1112basic_stringIS4_S5_T1_EE
	leal	-56(%ebp), %eax
	movl	%eax, %ecx
	call	__ZNKSt7__cxx1112basic_stringIcSt11char_traitsIcESaIcEE4dataEv
	movl	%eax, %edx
	leal	-32(%ebp), %eax
	movl	%edx, 4(%esp)
	movl	8(%ebp), %edx
	movl	%edx, (%esp)
	movl	%eax, %ecx
	call	__ZN2DB7getItemB5cxx11EPKc
LEHE37:
	subl	$8, %esp
	leal	-32(%ebp), %eax
	movl	%eax, 4(%esp)
	movl	$__ZSt4cout, (%esp)
LEHB38:
	call	__ZStlsIcSt11char_traitsIcESaIcEERSt13basic_ostreamIT_T0_ES7_RKNSt7__cxx1112basic_stringIS4_S5_T1_EE
	movl	$__ZSt4endlIcSt11char_traitsIcEERSt13basic_ostreamIT_T0_ES6_, (%esp)
	movl	%eax, %ecx
	call	__ZNSolsEPFRSoS_E
LEHE38:
	subl	$4, %esp
	leal	-32(%ebp), %eax
	movl	%eax, %ecx
	call	__ZNSt7__cxx1112basic_stringIcSt11char_traitsIcESaIcEED1Ev
	leal	-56(%ebp), %eax
	movl	%eax, %ecx
	call	__ZNSt7__cxx1112basic_stringIcSt11char_traitsIcESaIcEED1Ev
	jmp	L237
L236:
	movl	%eax, %ebx
	leal	-32(%ebp), %eax
	movl	%eax, %ecx
	call	__ZNSt7__cxx1112basic_stringIcSt11char_traitsIcESaIcEED1Ev
	jmp	L234
L235:
	movl	%eax, %ebx
L234:
	leal	-56(%ebp), %eax
	movl	%eax, %ecx
	call	__ZNSt7__cxx1112basic_stringIcSt11char_traitsIcESaIcEED1Ev
	movl	%ebx, %eax
	movl	%eax, (%esp)
LEHB39:
	call	__Unwind_Resume
LEHE39:
L237:
	movl	-4(%ebp), %ebx
	leave
	.cfi_restore 5
	.cfi_restore 3
	.cfi_def_cfa 4, 4
	ret
	.cfi_endproc
LFE4457:
	.section	.gcc_except_table,"w"
LLSDA4457:
	.byte	0xff
	.byte	0xff
	.byte	0x1
	.uleb128 LLSDACSE4457-LLSDACSB4457
LLSDACSB4457:
	.uleb128 LEHB37-LFB4457
	.uleb128 LEHE37-LEHB37
	.uleb128 L235-LFB4457
	.uleb128 0
	.uleb128 LEHB38-LFB4457
	.uleb128 LEHE38-LEHB38
	.uleb128 L236-LFB4457
	.uleb128 0
	.uleb128 LEHB39-LFB4457
	.uleb128 LEHE39-LEHB39
	.uleb128 0
	.uleb128 0
LLSDACSE4457:
	.text
	.section .rdata,"dr"
LC15:
	.ascii "[VALUE]>\0"
	.text
	.globl	__Z3set2DB
	.def	__Z3set2DB;	.scl	2;	.type	32;	.endef
__Z3set2DB:
LFB4458:
	.cfi_startproc
	.cfi_personality 0,___gxx_personality_v0
	.cfi_lsda 0,LLSDA4458
	pushl	%ebp
	.cfi_def_cfa_offset 8
	.cfi_offset 5, -8
	movl	%esp, %ebp
	.cfi_def_cfa_register 5
	pushl	%ebx
	subl	$68, %esp
	.cfi_offset 3, -12
	leal	-32(%ebp), %eax
	movl	%eax, %ecx
	call	__ZNSt7__cxx1112basic_stringIcSt11char_traitsIcESaIcEEC1Ev
	movl	$LC14, 4(%esp)
	movl	$__ZSt4cout, (%esp)
LEHB40:
	call	__ZStlsISt11char_traitsIcEERSt13basic_ostreamIcT_ES5_PKc
	leal	-32(%ebp), %eax
	movl	%eax, 4(%esp)
	movl	$__ZSt3cin, (%esp)
	call	__ZSt7getlineIcSt11char_traitsIcESaIcEERSt13basic_istreamIT_T0_ES7_RNSt7__cxx1112basic_stringIS4_S5_T1_EE
LEHE40:
	leal	-56(%ebp), %eax
	movl	%eax, %ecx
	call	__ZNSt7__cxx1112basic_stringIcSt11char_traitsIcESaIcEEC1Ev
	movl	$LC15, 4(%esp)
	movl	$__ZSt4cout, (%esp)
LEHB41:
	call	__ZStlsISt11char_traitsIcEERSt13basic_ostreamIcT_ES5_PKc
	leal	-56(%ebp), %eax
	movl	%eax, 4(%esp)
	movl	$__ZSt3cin, (%esp)
	call	__ZSt7getlineIcSt11char_traitsIcESaIcEERSt13basic_istreamIT_T0_ES7_RNSt7__cxx1112basic_stringIS4_S5_T1_EE
	leal	-56(%ebp), %eax
	movl	%eax, %ecx
	call	__ZNKSt7__cxx1112basic_stringIcSt11char_traitsIcESaIcEE4dataEv
	movl	%eax, %ebx
	leal	-32(%ebp), %eax
	movl	%eax, %ecx
	call	__ZNKSt7__cxx1112basic_stringIcSt11char_traitsIcESaIcEE4dataEv
	movl	%ebx, 4(%esp)
	movl	%eax, (%esp)
	movl	8(%ebp), %ecx
	call	__ZN2DB7setItemEPKcS1_
LEHE41:
	subl	$8, %esp
	leal	-56(%ebp), %eax
	movl	%eax, %ecx
	call	__ZNSt7__cxx1112basic_stringIcSt11char_traitsIcESaIcEED1Ev
	leal	-32(%ebp), %eax
	movl	%eax, %ecx
	call	__ZNSt7__cxx1112basic_stringIcSt11char_traitsIcESaIcEED1Ev
	jmp	L243
L242:
	movl	%eax, %ebx
	leal	-56(%ebp), %eax
	movl	%eax, %ecx
	call	__ZNSt7__cxx1112basic_stringIcSt11char_traitsIcESaIcEED1Ev
	jmp	L240
L241:
	movl	%eax, %ebx
L240:
	leal	-32(%ebp), %eax
	movl	%eax, %ecx
	call	__ZNSt7__cxx1112basic_stringIcSt11char_traitsIcESaIcEED1Ev
	movl	%ebx, %eax
	movl	%eax, (%esp)
LEHB42:
	call	__Unwind_Resume
LEHE42:
L243:
	movl	-4(%ebp), %ebx
	leave
	.cfi_restore 5
	.cfi_restore 3
	.cfi_def_cfa 4, 4
	ret
	.cfi_endproc
LFE4458:
	.section	.gcc_except_table,"w"
LLSDA4458:
	.byte	0xff
	.byte	0xff
	.byte	0x1
	.uleb128 LLSDACSE4458-LLSDACSB4458
LLSDACSB4458:
	.uleb128 LEHB40-LFB4458
	.uleb128 LEHE40-LEHB40
	.uleb128 L241-LFB4458
	.uleb128 0
	.uleb128 LEHB41-LFB4458
	.uleb128 LEHE41-LEHB41
	.uleb128 L242-LFB4458
	.uleb128 0
	.uleb128 LEHB42-LFB4458
	.uleb128 LEHE42-LEHB42
	.uleb128 0
	.uleb128 0
LLSDACSE4458:
	.text
	.section	.text$_ZN2DBC1ERKS_,"x"
	.linkonce discard
	.align 2
	.globl	__ZN2DBC1ERKS_
	.def	__ZN2DBC1ERKS_;	.scl	2;	.type	32;	.endef
__ZN2DBC1ERKS_:
LFB4462:
	.cfi_startproc
	pushl	%ebp
	.cfi_def_cfa_offset 8
	.cfi_offset 5, -8
	movl	%esp, %ebp
	.cfi_def_cfa_register 5
	subl	$40, %esp
	movl	%ecx, -12(%ebp)
	movl	8(%ebp), %edx
	movl	-12(%ebp), %eax
	movl	%edx, (%esp)
	movl	%eax, %ecx
	call	__ZNSt7__cxx1112basic_stringIcSt11char_traitsIcESaIcEEC1ERKS4_
	subl	$4, %esp
	nop
	leave
	.cfi_restore 5
	.cfi_def_cfa 4, 4
	ret	$4
	.cfi_endproc
LFE4462:
	.section .rdata,"dr"
LC16:
	.ascii ">\0"
	.align 4
LC17:
	.ascii "set, remove, get, list, exit, help\0"
LC18:
	.ascii "Command no found\0"
	.text
	.globl	__Z8DatabasePKc
	.def	__Z8DatabasePKc;	.scl	2;	.type	32;	.endef
__Z8DatabasePKc:
LFB4459:
	.cfi_startproc
	.cfi_personality 0,___gxx_personality_v0
	.cfi_lsda 0,LLSDA4459
	pushl	%ebp
	.cfi_def_cfa_offset 8
	.cfi_offset 5, -8
	movl	%esp, %ebp
	.cfi_def_cfa_register 5
	pushl	%ebx
	subl	$164, %esp
	.cfi_offset 3, -12
	leal	-128(%ebp), %eax
	movl	8(%ebp), %edx
	movl	%edx, (%esp)
	movl	%eax, %ecx
LEHB43:
	call	__ZN2DBC1EPKc
LEHE43:
	subl	$4, %esp
L255:
	leal	-152(%ebp), %eax
	movl	%eax, %ecx
	call	__ZNSt7__cxx1112basic_stringIcSt11char_traitsIcESaIcEEC1Ev
	movl	$LC16, 4(%esp)
	movl	$__ZSt4cout, (%esp)
LEHB44:
	call	__ZStlsISt11char_traitsIcEERSt13basic_ostreamIcT_ES5_PKc
	leal	-152(%ebp), %eax
	movl	%eax, 4(%esp)
	movl	$__ZSt3cin, (%esp)
	call	__ZSt7getlineIcSt11char_traitsIcESaIcEERSt13basic_istreamIT_T0_ES7_RNSt7__cxx1112basic_stringIS4_S5_T1_EE
	leal	-152(%ebp), %eax
	movl	%eax, %ecx
	call	__ZNKSt7__cxx1112basic_stringIcSt11char_traitsIcESaIcEE4dataEv
	movl	$0, 4(%esp)
	movl	%eax, (%esp)
	call	__Z7str2intPKci
	cmpl	$1173538723, %eax
	je	L247
	cmpl	$1173538723, %eax
	ja	L248
	cmpl	$193421927, %eax
	je	L249
	cmpl	$193421939, %eax
	je	L250
	jmp	L246
L248:
	cmpl	$2087960197, %eax
	je	L251
	cmpl	$2088099508, %eax
	je	L252
	cmpl	$2087933287, %eax
	je	L253
	jmp	L246
L249:
	leal	-104(%ebp), %eax
	leal	-128(%ebp), %edx
	movl	%edx, (%esp)
	movl	%eax, %ecx
	call	__ZN2DBC1ERKS_
LEHE44:
	subl	$4, %esp
	leal	-104(%ebp), %eax
	movl	%eax, (%esp)
LEHB45:
	call	__Z3set2DB
LEHE45:
	leal	-104(%ebp), %eax
	movl	%eax, %ecx
	call	__ZN2DBD1Ev
	jmp	L254
L247:
	leal	-80(%ebp), %eax
	leal	-128(%ebp), %edx
	movl	%edx, (%esp)
	movl	%eax, %ecx
LEHB46:
	call	__ZN2DBC1ERKS_
LEHE46:
	subl	$4, %esp
	leal	-80(%ebp), %eax
	movl	%eax, (%esp)
LEHB47:
	call	__Z6remove2DB
LEHE47:
	leal	-80(%ebp), %eax
	movl	%eax, %ecx
	call	__ZN2DBD1Ev
	jmp	L254
L253:
	leal	-56(%ebp), %eax
	leal	-128(%ebp), %edx
	movl	%edx, (%esp)
	movl	%eax, %ecx
LEHB48:
	call	__ZN2DBC1ERKS_
LEHE48:
	subl	$4, %esp
	leal	-56(%ebp), %eax
	movl	%eax, (%esp)
LEHB49:
	call	__Z4list2DB
LEHE49:
	leal	-56(%ebp), %eax
	movl	%eax, %ecx
	call	__ZN2DBD1Ev
	jmp	L254
L250:
	leal	-32(%ebp), %eax
	leal	-128(%ebp), %edx
	movl	%edx, (%esp)
	movl	%eax, %ecx
LEHB50:
	call	__ZN2DBC1ERKS_
LEHE50:
	subl	$4, %esp
	leal	-32(%ebp), %eax
	movl	%eax, (%esp)
LEHB51:
	call	__Z3get2DB
LEHE51:
	leal	-32(%ebp), %eax
	movl	%eax, %ecx
	call	__ZN2DBD1Ev
	jmp	L254
L251:
	movl	$0, (%esp)
	call	_exit
L252:
	movl	$LC17, 4(%esp)
	movl	$__ZSt4cout, (%esp)
LEHB52:
	call	__ZStlsISt11char_traitsIcEERSt13basic_ostreamIcT_ES5_PKc
	movl	$__ZSt4endlIcSt11char_traitsIcEERSt13basic_ostreamIT_T0_ES6_, (%esp)
	movl	%eax, %ecx
	call	__ZNSolsEPFRSoS_E
	subl	$4, %esp
	jmp	L254
L246:
	movl	$LC18, 4(%esp)
	movl	$__ZSt4cout, (%esp)
	call	__ZStlsISt11char_traitsIcEERSt13basic_ostreamIcT_ES5_PKc
	movl	$__ZSt4endlIcSt11char_traitsIcEERSt13basic_ostreamIT_T0_ES6_, (%esp)
	movl	%eax, %ecx
	call	__ZNSolsEPFRSoS_E
LEHE52:
	subl	$4, %esp
	nop
L254:
	leal	-152(%ebp), %eax
	movl	%eax, %ecx
	call	__ZNSt7__cxx1112basic_stringIcSt11char_traitsIcESaIcEED1Ev
	jmp	L255
L262:
	movl	%eax, %ebx
	leal	-104(%ebp), %eax
	movl	%eax, %ecx
	call	__ZN2DBD1Ev
	jmp	L257
L263:
	movl	%eax, %ebx
	leal	-80(%ebp), %eax
	movl	%eax, %ecx
	call	__ZN2DBD1Ev
	jmp	L257
L264:
	movl	%eax, %ebx
	leal	-56(%ebp), %eax
	movl	%eax, %ecx
	call	__ZN2DBD1Ev
	jmp	L257
L265:
	movl	%eax, %ebx
	leal	-32(%ebp), %eax
	movl	%eax, %ecx
	call	__ZN2DBD1Ev
	jmp	L257
L261:
	movl	%eax, %ebx
L257:
	leal	-152(%ebp), %eax
	movl	%eax, %ecx
	call	__ZNSt7__cxx1112basic_stringIcSt11char_traitsIcESaIcEED1Ev
	leal	-128(%ebp), %eax
	movl	%eax, %ecx
	call	__ZN2DBD1Ev
	movl	%ebx, %eax
	movl	%eax, (%esp)
LEHB53:
	call	__Unwind_Resume
LEHE53:
	.cfi_endproc
LFE4459:
	.section	.gcc_except_table,"w"
LLSDA4459:
	.byte	0xff
	.byte	0xff
	.byte	0x1
	.uleb128 LLSDACSE4459-LLSDACSB4459
LLSDACSB4459:
	.uleb128 LEHB43-LFB4459
	.uleb128 LEHE43-LEHB43
	.uleb128 0
	.uleb128 0
	.uleb128 LEHB44-LFB4459
	.uleb128 LEHE44-LEHB44
	.uleb128 L261-LFB4459
	.uleb128 0
	.uleb128 LEHB45-LFB4459
	.uleb128 LEHE45-LEHB45
	.uleb128 L262-LFB4459
	.uleb128 0
	.uleb128 LEHB46-LFB4459
	.uleb128 LEHE46-LEHB46
	.uleb128 L261-LFB4459
	.uleb128 0
	.uleb128 LEHB47-LFB4459
	.uleb128 LEHE47-LEHB47
	.uleb128 L263-LFB4459
	.uleb128 0
	.uleb128 LEHB48-LFB4459
	.uleb128 LEHE48-LEHB48
	.uleb128 L261-LFB4459
	.uleb128 0
	.uleb128 LEHB49-LFB4459
	.uleb128 LEHE49-LEHB49
	.uleb128 L264-LFB4459
	.uleb128 0
	.uleb128 LEHB50-LFB4459
	.uleb128 LEHE50-LEHB50
	.uleb128 L261-LFB4459
	.uleb128 0
	.uleb128 LEHB51-LFB4459
	.uleb128 LEHE51-LEHB51
	.uleb128 L265-LFB4459
	.uleb128 0
	.uleb128 LEHB52-LFB4459
	.uleb128 LEHE52-LEHB52
	.uleb128 L261-LFB4459
	.uleb128 0
	.uleb128 LEHB53-LFB4459
	.uleb128 LEHE53-LEHB53
	.uleb128 0
	.uleb128 0
LLSDACSE4459:
	.text
	.def	___main;	.scl	2;	.type	32;	.endef
	.section .rdata,"dr"
LC19:
	.ascii ".\0"
LC20:
	.ascii "Enter your database name: \0"
LC21:
	.ascii ".txt\0"
	.text
	.globl	_main
	.def	_main;	.scl	2;	.type	32;	.endef
_main:
LFB4463:
	.cfi_startproc
	.cfi_personality 0,___gxx_personality_v0
	.cfi_lsda 0,LLSDA4463
	leal	4(%esp), %ecx
	.cfi_def_cfa 1, 0
	andl	$-16, %esp
	pushl	-4(%ecx)
	pushl	%ebp
	.cfi_escape 0x10,0x5,0x2,0x75,0
	movl	%esp, %ebp
	pushl	%ebx
	pushl	%ecx
	.cfi_escape 0xf,0x3,0x75,0x78,0x6
	.cfi_escape 0x10,0x3,0x2,0x75,0x7c
	subl	$80, %esp
	call	___main
	leal	-36(%ebp), %eax
	movl	%eax, %ecx
	call	__ZNSt7__cxx1112basic_stringIcSt11char_traitsIcESaIcEEC1Ev
	leal	-9(%ebp), %eax
	movl	%eax, %ecx
	call	__ZNSaIcEC1Ev
	leal	-60(%ebp), %eax
	leal	-9(%ebp), %edx
	movl	%edx, 4(%esp)
	movl	$LC19, (%esp)
	movl	%eax, %ecx
LEHB54:
	call	__ZNSt7__cxx1112basic_stringIcSt11char_traitsIcESaIcEEC1EPKcRKS3_
LEHE54:
	subl	$8, %esp
	leal	-9(%ebp), %eax
	movl	%eax, %ecx
	call	__ZNSaIcED1Ev
	movl	$LC20, 4(%esp)
	movl	$__ZSt4cout, (%esp)
LEHB55:
	call	__ZStlsISt11char_traitsIcEERSt13basic_ostreamIcT_ES5_PKc
	leal	-36(%ebp), %eax
	movl	%eax, 4(%esp)
	movl	$__ZSt3cin, (%esp)
	call	__ZSt7getlineIcSt11char_traitsIcESaIcEERSt13basic_istreamIT_T0_ES7_RNSt7__cxx1112basic_stringIS4_S5_T1_EE
	leal	-36(%ebp), %eax
	movl	$0, 4(%esp)
	leal	-60(%ebp), %edx
	movl	%edx, (%esp)
	movl	%eax, %ecx
	call	__ZNKSt7__cxx1112basic_stringIcSt11char_traitsIcESaIcEE4findERKS4_j
	subl	$8, %esp
	cmpl	$-1, %eax
	setne	%al
	testb	%al, %al
	je	L267
	leal	-36(%ebp), %eax
	movl	%eax, %ecx
	call	__ZNKSt7__cxx1112basic_stringIcSt11char_traitsIcESaIcEE4dataEv
	movl	%eax, (%esp)
	call	__Z8DatabasePKc
	jmp	L268
L267:
	leal	-36(%ebp), %eax
	movl	$LC21, (%esp)
	movl	%eax, %ecx
	call	__ZNSt7__cxx1112basic_stringIcSt11char_traitsIcESaIcEEpLEPKc
	subl	$4, %esp
	leal	-36(%ebp), %eax
	movl	%eax, %ecx
	call	__ZNKSt7__cxx1112basic_stringIcSt11char_traitsIcESaIcEE4dataEv
	movl	%eax, (%esp)
	call	__Z8DatabasePKc
LEHE55:
L268:
	movl	$0, %ebx
	leal	-60(%ebp), %eax
	movl	%eax, %ecx
	call	__ZNSt7__cxx1112basic_stringIcSt11char_traitsIcESaIcEED1Ev
	leal	-36(%ebp), %eax
	movl	%eax, %ecx
	call	__ZNSt7__cxx1112basic_stringIcSt11char_traitsIcESaIcEED1Ev
	movl	%ebx, %eax
	jmp	L275
L273:
	movl	%eax, %ebx
	leal	-9(%ebp), %eax
	movl	%eax, %ecx
	call	__ZNSaIcED1Ev
	jmp	L271
L274:
	movl	%eax, %ebx
	leal	-60(%ebp), %eax
	movl	%eax, %ecx
	call	__ZNSt7__cxx1112basic_stringIcSt11char_traitsIcESaIcEED1Ev
L271:
	leal	-36(%ebp), %eax
	movl	%eax, %ecx
	call	__ZNSt7__cxx1112basic_stringIcSt11char_traitsIcESaIcEED1Ev
	movl	%ebx, %eax
	movl	%eax, (%esp)
LEHB56:
	call	__Unwind_Resume
LEHE56:
L275:
	leal	-8(%ebp), %esp
	popl	%ecx
	.cfi_restore 1
	.cfi_def_cfa 1, 0
	popl	%ebx
	.cfi_restore 3
	popl	%ebp
	.cfi_restore 5
	leal	-4(%ecx), %esp
	.cfi_def_cfa 4, 4
	ret
	.cfi_endproc
LFE4463:
	.section	.gcc_except_table,"w"
LLSDA4463:
	.byte	0xff
	.byte	0xff
	.byte	0x1
	.uleb128 LLSDACSE4463-LLSDACSB4463
LLSDACSB4463:
	.uleb128 LEHB54-LFB4463
	.uleb128 LEHE54-LEHB54
	.uleb128 L273-LFB4463
	.uleb128 0
	.uleb128 LEHB55-LFB4463
	.uleb128 LEHE55-LEHB55
	.uleb128 L274-LFB4463
	.uleb128 0
	.uleb128 LEHB56-LFB4463
	.uleb128 LEHE56-LEHB56
	.uleb128 0
	.uleb128 0
LLSDACSE4463:
	.text
	.section	.text$_ZN9__gnu_cxx12__to_xstringINSt7__cxx1112basic_stringIcSt11char_traitsIcESaIcEEEcEET_PFiPT0_jPKS8_PcEjSB_z,"x"
	.linkonce discard
	.globl	__ZN9__gnu_cxx12__to_xstringINSt7__cxx1112basic_stringIcSt11char_traitsIcESaIcEEEcEET_PFiPT0_jPKS8_PcEjSB_z
	.def	__ZN9__gnu_cxx12__to_xstringINSt7__cxx1112basic_stringIcSt11char_traitsIcESaIcEEEcEET_PFiPT0_jPKS8_PcEjSB_z;	.scl	2;	.type	32;	.endef
__ZN9__gnu_cxx12__to_xstringINSt7__cxx1112basic_stringIcSt11char_traitsIcESaIcEEEcEET_PFiPT0_jPKS8_PcEjSB_z:
LFB4521:
	.cfi_startproc
	.cfi_personality 0,___gxx_personality_v0
	.cfi_lsda 0,LLSDA4521
	pushl	%ebp
	.cfi_def_cfa_offset 8
	.cfi_offset 5, -8
	movl	%esp, %ebp
	.cfi_def_cfa_register 5
	pushl	%ebx
	subl	$36, %esp
	.cfi_offset 3, -12
	movl	16(%ebp), %eax
	leal	15(%eax), %edx
	movl	$16, %eax
	subl	$1, %eax
	addl	%edx, %eax
	movl	$16, %ebx
	movl	$0, %edx
	divl	%ebx
	imull	$16, %eax, %eax
	call	___chkstk_ms
	subl	%eax, %esp
	leal	16(%esp), %eax
	addl	$15, %eax
	shrl	$4, %eax
	sall	$4, %eax
	movl	%eax, -12(%ebp)
	leal	24(%ebp), %eax
	movl	%eax, -24(%ebp)
	movl	-24(%ebp), %eax
	movl	%eax, 12(%esp)
	movl	20(%ebp), %eax
	movl	%eax, 8(%esp)
	movl	16(%ebp), %eax
	movl	%eax, 4(%esp)
	movl	-12(%ebp), %eax
	movl	%eax, (%esp)
	movl	12(%ebp), %eax
LEHB57:
	call	*%eax
LEHE57:
	movl	%eax, -16(%ebp)
	leal	-17(%ebp), %eax
	movl	%eax, %ecx
	call	__ZNSaIcEC1Ev
	movl	-16(%ebp), %edx
	movl	-12(%ebp), %eax
	addl	%eax, %edx
	leal	-17(%ebp), %eax
	movl	%eax, 8(%esp)
	movl	%edx, 4(%esp)
	movl	-12(%ebp), %eax
	movl	%eax, (%esp)
	movl	8(%ebp), %ecx
LEHB58:
	call	__ZNSt7__cxx1112basic_stringIcSt11char_traitsIcESaIcEEC1IPcvEET_S7_RKS3_
LEHE58:
	subl	$12, %esp
	leal	-17(%ebp), %eax
	movl	%eax, %ecx
	call	__ZNSaIcED1Ev
	jmp	L280
L279:
	movl	%eax, %ebx
	leal	-17(%ebp), %eax
	movl	%eax, %ecx
	call	__ZNSaIcED1Ev
	movl	%ebx, %eax
	movl	%eax, (%esp)
LEHB59:
	call	__Unwind_Resume
LEHE59:
L280:
	movl	8(%ebp), %eax
	movl	-4(%ebp), %ebx
	leave
	.cfi_restore 5
	.cfi_restore 3
	.cfi_def_cfa 4, 4
	ret
	.cfi_endproc
LFE4521:
	.section	.gcc_except_table,"w"
LLSDA4521:
	.byte	0xff
	.byte	0xff
	.byte	0x1
	.uleb128 LLSDACSE4521-LLSDACSB4521
LLSDACSB4521:
	.uleb128 LEHB57-LFB4521
	.uleb128 LEHE57-LEHB57
	.uleb128 0
	.uleb128 0
	.uleb128 LEHB58-LFB4521
	.uleb128 LEHE58-LEHB58
	.uleb128 L279-LFB4521
	.uleb128 0
	.uleb128 LEHB59-LFB4521
	.uleb128 LEHE59-LEHB59
	.uleb128 0
	.uleb128 0
LLSDACSE4521:
	.section	.text$_ZN9__gnu_cxx12__to_xstringINSt7__cxx1112basic_stringIcSt11char_traitsIcESaIcEEEcEET_PFiPT0_jPKS8_PcEjSB_z,"x"
	.linkonce discard
	.section	.text$_ZNSt7__cxx1112basic_stringIcSt11char_traitsIcESaIcEE12_Alloc_hiderD1Ev,"x"
	.linkonce discard
	.align 2
	.globl	__ZNSt7__cxx1112basic_stringIcSt11char_traitsIcESaIcEE12_Alloc_hiderD1Ev
	.def	__ZNSt7__cxx1112basic_stringIcSt11char_traitsIcESaIcEE12_Alloc_hiderD1Ev;	.scl	2;	.type	32;	.endef
__ZNSt7__cxx1112basic_stringIcSt11char_traitsIcESaIcEE12_Alloc_hiderD1Ev:
LFB4525:
	.cfi_startproc
	pushl	%ebp
	.cfi_def_cfa_offset 8
	.cfi_offset 5, -8
	movl	%esp, %ebp
	.cfi_def_cfa_register 5
	subl	$24, %esp
	movl	%ecx, -12(%ebp)
	movl	-12(%ebp), %eax
	movl	%eax, %ecx
	call	__ZNSaIcED2Ev
	nop
	leave
	.cfi_restore 5
	.cfi_def_cfa 4, 4
	ret
	.cfi_endproc
LFE4525:
	.section	.text$_ZSt4moveIRSaIcEEONSt16remove_referenceIT_E4typeEOS3_,"x"
	.linkonce discard
	.globl	__ZSt4moveIRSaIcEEONSt16remove_referenceIT_E4typeEOS3_
	.def	__ZSt4moveIRSaIcEEONSt16remove_referenceIT_E4typeEOS3_;	.scl	2;	.type	32;	.endef
__ZSt4moveIRSaIcEEONSt16remove_referenceIT_E4typeEOS3_:
LFB4529:
	.cfi_startproc
	pushl	%ebp
	.cfi_def_cfa_offset 8
	.cfi_offset 5, -8
	movl	%esp, %ebp
	.cfi_def_cfa_register 5
	movl	8(%ebp), %eax
	popl	%ebp
	.cfi_restore 5
	.cfi_def_cfa 4, 4
	ret
	.cfi_endproc
LFE4529:
	.section	.text$_ZSt4moveIRNSt7__cxx1112basic_stringIcSt11char_traitsIcESaIcEEEEONSt16remove_referenceIT_E4typeEOS8_,"x"
	.linkonce discard
	.globl	__ZSt4moveIRNSt7__cxx1112basic_stringIcSt11char_traitsIcESaIcEEEEONSt16remove_referenceIT_E4typeEOS8_
	.def	__ZSt4moveIRNSt7__cxx1112basic_stringIcSt11char_traitsIcESaIcEEEEONSt16remove_referenceIT_E4typeEOS8_;	.scl	2;	.type	32;	.endef
__ZSt4moveIRNSt7__cxx1112basic_stringIcSt11char_traitsIcESaIcEEEEONSt16remove_referenceIT_E4typeEOS8_:
LFB4667:
	.cfi_startproc
	pushl	%ebp
	.cfi_def_cfa_offset 8
	.cfi_offset 5, -8
	movl	%esp, %ebp
	.cfi_def_cfa_register 5
	movl	8(%ebp), %eax
	popl	%ebp
	.cfi_restore 5
	.cfi_def_cfa 4, 4
	ret
	.cfi_endproc
LFE4667:
	.section	.text$_ZNSt6vectorIjSaIjEEC1Ev,"x"
	.linkonce discard
	.align 2
	.globl	__ZNSt6vectorIjSaIjEEC1Ev
	.def	__ZNSt6vectorIjSaIjEEC1Ev;	.scl	2;	.type	32;	.endef
__ZNSt6vectorIjSaIjEEC1Ev:
LFB4697:
	.cfi_startproc
	.cfi_personality 0,___gxx_personality_v0
	.cfi_lsda 0,LLSDA4697
	pushl	%ebp
	.cfi_def_cfa_offset 8
	.cfi_offset 5, -8
	movl	%esp, %ebp
	.cfi_def_cfa_register 5
	subl	$24, %esp
	movl	%ecx, -12(%ebp)
	movl	-12(%ebp), %eax
	movl	%eax, %ecx
	call	__ZNSt12_Vector_baseIjSaIjEEC2Ev
	nop
	leave
	.cfi_restore 5
	.cfi_def_cfa 4, 4
	ret
	.cfi_endproc
LFE4697:
	.section	.gcc_except_table,"w"
LLSDA4697:
	.byte	0xff
	.byte	0xff
	.byte	0x1
	.uleb128 LLSDACSE4697-LLSDACSB4697
LLSDACSB4697:
LLSDACSE4697:
	.section	.text$_ZNSt6vectorIjSaIjEEC1Ev,"x"
	.linkonce discard
	.section	.text$_ZNSt6vectorIjSaIjEED1Ev,"x"
	.linkonce discard
	.align 2
	.globl	__ZNSt6vectorIjSaIjEED1Ev
	.def	__ZNSt6vectorIjSaIjEED1Ev;	.scl	2;	.type	32;	.endef
__ZNSt6vectorIjSaIjEED1Ev:
LFB4700:
	.cfi_startproc
	.cfi_personality 0,___gxx_personality_v0
	.cfi_lsda 0,LLSDA4700
	pushl	%ebp
	.cfi_def_cfa_offset 8
	.cfi_offset 5, -8
	movl	%esp, %ebp
	.cfi_def_cfa_register 5
	subl	$40, %esp
	movl	%ecx, -12(%ebp)
	movl	-12(%ebp), %eax
	movl	%eax, %ecx
	call	__ZNSt12_Vector_baseIjSaIjEE19_M_get_Tp_allocatorEv
	movl	%eax, %ecx
	movl	-12(%ebp), %eax
	movl	4(%eax), %edx
	movl	-12(%ebp), %eax
	movl	(%eax), %eax
	movl	%ecx, 8(%esp)
	movl	%edx, 4(%esp)
	movl	%eax, (%esp)
	call	__ZSt8_DestroyIPjjEvT_S1_RSaIT0_E
	movl	-12(%ebp), %eax
	movl	%eax, %ecx
	call	__ZNSt12_Vector_baseIjSaIjEED2Ev
	nop
	leave
	.cfi_restore 5
	.cfi_def_cfa 4, 4
	ret
	.cfi_endproc
LFE4700:
	.section	.gcc_except_table,"w"
LLSDA4700:
	.byte	0xff
	.byte	0xff
	.byte	0x1
	.uleb128 LLSDACSE4700-LLSDACSB4700
LLSDACSB4700:
LLSDACSE4700:
	.section	.text$_ZNSt6vectorIjSaIjEED1Ev,"x"
	.linkonce discard
	.section	.text$_ZNSt7__cxx1111basic_regexIcNS_12regex_traitsIcEEEC1EPKcNSt15regex_constants18syntax_option_typeE,"x"
	.linkonce discard
	.align 2
	.globl	__ZNSt7__cxx1111basic_regexIcNS_12regex_traitsIcEEEC1EPKcNSt15regex_constants18syntax_option_typeE
	.def	__ZNSt7__cxx1111basic_regexIcNS_12regex_traitsIcEEEC1EPKcNSt15regex_constants18syntax_option_typeE;	.scl	2;	.type	32;	.endef
__ZNSt7__cxx1111basic_regexIcNS_12regex_traitsIcEEEC1EPKcNSt15regex_constants18syntax_option_typeE:
LFB4719:
	.cfi_startproc
	pushl	%ebp
	.cfi_def_cfa_offset 8
	.cfi_offset 5, -8
	movl	%esp, %ebp
	.cfi_def_cfa_register 5
	subl	$40, %esp
	movl	%ecx, -12(%ebp)
	movl	8(%ebp), %eax
	movl	%eax, (%esp)
	call	__ZNSt11char_traitsIcE6lengthEPKc
	movl	%eax, %edx
	movl	8(%ebp), %eax
	leal	(%edx,%eax), %ecx
	movl	-12(%ebp), %eax
	movl	12(%ebp), %edx
	movl	%edx, 8(%esp)
	movl	%ecx, 4(%esp)
	movl	8(%ebp), %edx
	movl	%edx, (%esp)
	movl	%eax, %ecx
	call	__ZNSt7__cxx1111basic_regexIcNS_12regex_traitsIcEEEC1IPKcEET_S7_NSt15regex_constants18syntax_option_typeE
	subl	$12, %esp
	nop
	leave
	.cfi_restore 5
	.cfi_def_cfa 4, 4
	ret	$8
	.cfi_endproc
LFE4719:
	.section	.text$_ZNSt12__shared_ptrIKNSt8__detail4_NFAINSt7__cxx1112regex_traitsIcEEEELN9__gnu_cxx12_Lock_policyE2EED2Ev,"x"
	.linkonce discard
	.align 2
	.globl	__ZNSt12__shared_ptrIKNSt8__detail4_NFAINSt7__cxx1112regex_traitsIcEEEELN9__gnu_cxx12_Lock_policyE2EED2Ev
	.def	__ZNSt12__shared_ptrIKNSt8__detail4_NFAINSt7__cxx1112regex_traitsIcEEEELN9__gnu_cxx12_Lock_policyE2EED2Ev;	.scl	2;	.type	32;	.endef
__ZNSt12__shared_ptrIKNSt8__detail4_NFAINSt7__cxx1112regex_traitsIcEEEELN9__gnu_cxx12_Lock_policyE2EED2Ev:
LFB4723:
	.cfi_startproc
	pushl	%ebp
	.cfi_def_cfa_offset 8
	.cfi_offset 5, -8
	movl	%esp, %ebp
	.cfi_def_cfa_register 5
	subl	$24, %esp
	movl	%ecx, -12(%ebp)
	movl	-12(%ebp), %eax
	addl	$4, %eax
	movl	%eax, %ecx
	call	__ZNSt14__shared_countILN9__gnu_cxx12_Lock_policyE2EED1Ev
	nop
	leave
	.cfi_restore 5
	.cfi_def_cfa 4, 4
	ret
	.cfi_endproc
LFE4723:
	.section	.text$_ZNSt10shared_ptrIKNSt8__detail4_NFAINSt7__cxx1112regex_traitsIcEEEEED1Ev,"x"
	.linkonce discard
	.align 2
	.globl	__ZNSt10shared_ptrIKNSt8__detail4_NFAINSt7__cxx1112regex_traitsIcEEEEED1Ev
	.def	__ZNSt10shared_ptrIKNSt8__detail4_NFAINSt7__cxx1112regex_traitsIcEEEEED1Ev;	.scl	2;	.type	32;	.endef
__ZNSt10shared_ptrIKNSt8__detail4_NFAINSt7__cxx1112regex_traitsIcEEEEED1Ev:
LFB4726:
	.cfi_startproc
	pushl	%ebp
	.cfi_def_cfa_offset 8
	.cfi_offset 5, -8
	movl	%esp, %ebp
	.cfi_def_cfa_register 5
	subl	$24, %esp
	movl	%ecx, -12(%ebp)
	movl	-12(%ebp), %eax
	movl	%eax, %ecx
	call	__ZNSt12__shared_ptrIKNSt8__detail4_NFAINSt7__cxx1112regex_traitsIcEEEELN9__gnu_cxx12_Lock_policyE2EED2Ev
	nop
	leave
	.cfi_restore 5
	.cfi_def_cfa 4, 4
	ret
	.cfi_endproc
LFE4726:
	.section	.text$_ZNSt7__cxx1111basic_regexIcNS_12regex_traitsIcEEED1Ev,"x"
	.linkonce discard
	.align 2
	.globl	__ZNSt7__cxx1111basic_regexIcNS_12regex_traitsIcEEED1Ev
	.def	__ZNSt7__cxx1111basic_regexIcNS_12regex_traitsIcEEED1Ev;	.scl	2;	.type	32;	.endef
__ZNSt7__cxx1111basic_regexIcNS_12regex_traitsIcEEED1Ev:
LFB4728:
	.cfi_startproc
	pushl	%ebp
	.cfi_def_cfa_offset 8
	.cfi_offset 5, -8
	movl	%esp, %ebp
	.cfi_def_cfa_register 5
	subl	$24, %esp
	movl	%ecx, -12(%ebp)
	movl	-12(%ebp), %eax
	addl	$8, %eax
	movl	%eax, %ecx
	call	__ZNSt10shared_ptrIKNSt8__detail4_NFAINSt7__cxx1112regex_traitsIcEEEEED1Ev
	movl	-12(%ebp), %eax
	addl	$4, %eax
	movl	%eax, %ecx
	call	__ZNSt6localeD1Ev
	nop
	leave
	.cfi_restore 5
	.cfi_def_cfa 4, 4
	ret
	.cfi_endproc
LFE4728:
	.section	.text$_ZSt13back_inserterINSt7__cxx1112basic_stringIcSt11char_traitsIcESaIcEEEESt20back_insert_iteratorIT_ERS7_,"x"
	.linkonce discard
	.globl	__ZSt13back_inserterINSt7__cxx1112basic_stringIcSt11char_traitsIcESaIcEEEESt20back_insert_iteratorIT_ERS7_
	.def	__ZSt13back_inserterINSt7__cxx1112basic_stringIcSt11char_traitsIcESaIcEEEESt20back_insert_iteratorIT_ERS7_;	.scl	2;	.type	32;	.endef
__ZSt13back_inserterINSt7__cxx1112basic_stringIcSt11char_traitsIcESaIcEEEESt20back_insert_iteratorIT_ERS7_:
LFB4729:
	.cfi_startproc
	pushl	%ebp
	.cfi_def_cfa_offset 8
	.cfi_offset 5, -8
	movl	%esp, %ebp
	.cfi_def_cfa_register 5
	subl	$40, %esp
	leal	-12(%ebp), %eax
	movl	8(%ebp), %edx
	movl	%edx, (%esp)
	movl	%eax, %ecx
	call	__ZNSt20back_insert_iteratorINSt7__cxx1112basic_stringIcSt11char_traitsIcESaIcEEEEC1ERS5_
	subl	$4, %esp
	movl	-12(%ebp), %eax
	leave
	.cfi_restore 5
	.cfi_def_cfa 4, 4
	ret
	.cfi_endproc
LFE4729:
	.section	.text$_ZNSt7__cxx1114regex_iteratorIN9__gnu_cxx17__normal_iteratorIPcNS_12basic_stringIcSt11char_traitsIcESaIcEEEEEcNS_12regex_traitsIcEEED1Ev,"x"
	.linkonce discard
	.align 2
	.globl	__ZNSt7__cxx1114regex_iteratorIN9__gnu_cxx17__normal_iteratorIPcNS_12basic_stringIcSt11char_traitsIcESaIcEEEEEcNS_12regex_traitsIcEEED1Ev
	.def	__ZNSt7__cxx1114regex_iteratorIN9__gnu_cxx17__normal_iteratorIPcNS_12basic_stringIcSt11char_traitsIcESaIcEEEEEcNS_12regex_traitsIcEEED1Ev;	.scl	2;	.type	32;	.endef
__ZNSt7__cxx1114regex_iteratorIN9__gnu_cxx17__normal_iteratorIPcNS_12basic_stringIcSt11char_traitsIcESaIcEEEEEcNS_12regex_traitsIcEEED1Ev:
LFB4735:
	.cfi_startproc
	pushl	%ebp
	.cfi_def_cfa_offset 8
	.cfi_offset 5, -8
	movl	%esp, %ebp
	.cfi_def_cfa_register 5
	subl	$24, %esp
	movl	%ecx, -12(%ebp)
	movl	-12(%ebp), %eax
	addl	$16, %eax
	movl	%eax, %ecx
	call	__ZNSt7__cxx1113match_resultsIN9__gnu_cxx17__normal_iteratorIPcNS_12basic_stringIcSt11char_traitsIcESaIcEEEEESaINS_9sub_matchIS9_EEEED1Ev
	nop
	leave
	.cfi_restore 5
	.cfi_def_cfa 4, 4
	ret
	.cfi_endproc
LFE4735:
	.section	.text$_ZN9__gnu_cxx17__normal_iteratorIPcNSt7__cxx1112basic_stringIcSt11char_traitsIcESaIcEEEEC1Ev,"x"
	.linkonce discard
	.align 2
	.globl	__ZN9__gnu_cxx17__normal_iteratorIPcNSt7__cxx1112basic_stringIcSt11char_traitsIcESaIcEEEEC1Ev
	.def	__ZN9__gnu_cxx17__normal_iteratorIPcNSt7__cxx1112basic_stringIcSt11char_traitsIcESaIcEEEEC1Ev;	.scl	2;	.type	32;	.endef
__ZN9__gnu_cxx17__normal_iteratorIPcNSt7__cxx1112basic_stringIcSt11char_traitsIcESaIcEEEEC1Ev:
LFB4744:
	.cfi_startproc
	pushl	%ebp
	.cfi_def_cfa_offset 8
	.cfi_offset 5, -8
	movl	%esp, %ebp
	.cfi_def_cfa_register 5
	subl	$4, %esp
	movl	%ecx, -4(%ebp)
	movl	-4(%ebp), %eax
	movl	$0, (%eax)
	nop
	leave
	.cfi_restore 5
	.cfi_def_cfa 4, 4
	ret
	.cfi_endproc
LFE4744:
	.section	.text$_ZNSt4pairIN9__gnu_cxx17__normal_iteratorIPcNSt7__cxx1112basic_stringIcSt11char_traitsIcESaIcEEEEES9_EC2IS9_S9_Lb1EEEv,"x"
	.linkonce discard
	.align 2
	.globl	__ZNSt4pairIN9__gnu_cxx17__normal_iteratorIPcNSt7__cxx1112basic_stringIcSt11char_traitsIcESaIcEEEEES9_EC2IS9_S9_Lb1EEEv
	.def	__ZNSt4pairIN9__gnu_cxx17__normal_iteratorIPcNSt7__cxx1112basic_stringIcSt11char_traitsIcESaIcEEEEES9_EC2IS9_S9_Lb1EEEv;	.scl	2;	.type	32;	.endef
__ZNSt4pairIN9__gnu_cxx17__normal_iteratorIPcNSt7__cxx1112basic_stringIcSt11char_traitsIcESaIcEEEEES9_EC2IS9_S9_Lb1EEEv:
LFB4745:
	.cfi_startproc
	pushl	%ebp
	.cfi_def_cfa_offset 8
	.cfi_offset 5, -8
	movl	%esp, %ebp
	.cfi_def_cfa_register 5
	subl	$24, %esp
	movl	%ecx, -12(%ebp)
	movl	-12(%ebp), %eax
	movl	%eax, %ecx
	call	__ZN9__gnu_cxx17__normal_iteratorIPcNSt7__cxx1112basic_stringIcSt11char_traitsIcESaIcEEEEC1Ev
	movl	-12(%ebp), %eax
	addl	$4, %eax
	movl	%eax, %ecx
	call	__ZN9__gnu_cxx17__normal_iteratorIPcNSt7__cxx1112basic_stringIcSt11char_traitsIcESaIcEEEEC1Ev
	nop
	leave
	.cfi_restore 5
	.cfi_def_cfa 4, 4
	ret
	.cfi_endproc
LFE4745:
	.section	.text$_ZNSt7__cxx119sub_matchIN9__gnu_cxx17__normal_iteratorIPcNS_12basic_stringIcSt11char_traitsIcESaIcEEEEEEC1Ev,"x"
	.linkonce discard
	.align 2
	.globl	__ZNSt7__cxx119sub_matchIN9__gnu_cxx17__normal_iteratorIPcNS_12basic_stringIcSt11char_traitsIcESaIcEEEEEEC1Ev
	.def	__ZNSt7__cxx119sub_matchIN9__gnu_cxx17__normal_iteratorIPcNS_12basic_stringIcSt11char_traitsIcESaIcEEEEEEC1Ev;	.scl	2;	.type	32;	.endef
__ZNSt7__cxx119sub_matchIN9__gnu_cxx17__normal_iteratorIPcNS_12basic_stringIcSt11char_traitsIcESaIcEEEEEEC1Ev:
LFB4748:
	.cfi_startproc
	pushl	%ebp
	.cfi_def_cfa_offset 8
	.cfi_offset 5, -8
	movl	%esp, %ebp
	.cfi_def_cfa_register 5
	subl	$24, %esp
	movl	%ecx, -12(%ebp)
	movl	-12(%ebp), %eax
	movl	%eax, %ecx
	call	__ZNSt4pairIN9__gnu_cxx17__normal_iteratorIPcNSt7__cxx1112basic_stringIcSt11char_traitsIcESaIcEEEEES9_EC2IS9_S9_Lb1EEEv
	movl	-12(%ebp), %eax
	movb	$0, 8(%eax)
	nop
	leave
	.cfi_restore 5
	.cfi_def_cfa 4, 4
	ret
	.cfi_endproc
LFE4748:
	.section	.text$_ZNSt7__cxx119sub_matchIN9__gnu_cxx17__normal_iteratorIPcNS_12basic_stringIcSt11char_traitsIcESaIcEEEEEEaSERKSA_,"x"
	.linkonce discard
	.align 2
	.globl	__ZNSt7__cxx119sub_matchIN9__gnu_cxx17__normal_iteratorIPcNS_12basic_stringIcSt11char_traitsIcESaIcEEEEEEaSERKSA_
	.def	__ZNSt7__cxx119sub_matchIN9__gnu_cxx17__normal_iteratorIPcNS_12basic_stringIcSt11char_traitsIcESaIcEEEEEEaSERKSA_;	.scl	2;	.type	32;	.endef
__ZNSt7__cxx119sub_matchIN9__gnu_cxx17__normal_iteratorIPcNS_12basic_stringIcSt11char_traitsIcESaIcEEEEEEaSERKSA_:
LFB4749:
	.cfi_startproc
	pushl	%ebp
	.cfi_def_cfa_offset 8
	.cfi_offset 5, -8
	movl	%esp, %ebp
	.cfi_def_cfa_register 5
	subl	$40, %esp
	movl	%ecx, -12(%ebp)
	movl	8(%ebp), %edx
	movl	-12(%ebp), %eax
	movl	%edx, (%esp)
	movl	%eax, %ecx
	call	__ZNSt4pairIN9__gnu_cxx17__normal_iteratorIPcNSt7__cxx1112basic_stringIcSt11char_traitsIcESaIcEEEEES9_EaSERKSA_
	subl	$4, %esp
	movl	8(%ebp), %eax
	movzbl	8(%eax), %edx
	movl	-12(%ebp), %eax
	movb	%dl, 8(%eax)
	movl	-12(%ebp), %eax
	leave
	.cfi_restore 5
	.cfi_def_cfa 4, 4
	ret	$4
	.cfi_endproc
LFE4749:
	.section	.text$_ZSt13regex_replaceISt20back_insert_iteratorINSt7__cxx1112basic_stringIcSt11char_traitsIcESaIcEEEEN9__gnu_cxx17__normal_iteratorIPcS6_EENS1_12regex_traitsIcEEcET_SE_T0_SF_RKNS1_11basic_regexIT2_T1_EEPKSH_NSt15regex_constants15match_flag_typeE,"x"
	.linkonce discard
	.globl	__ZSt13regex_replaceISt20back_insert_iteratorINSt7__cxx1112basic_stringIcSt11char_traitsIcESaIcEEEEN9__gnu_cxx17__normal_iteratorIPcS6_EENS1_12regex_traitsIcEEcET_SE_T0_SF_RKNS1_11basic_regexIT2_T1_EEPKSH_NSt15regex_constants15match_flag_typeE
	.def	__ZSt13regex_replaceISt20back_insert_iteratorINSt7__cxx1112basic_stringIcSt11char_traitsIcESaIcEEEEN9__gnu_cxx17__normal_iteratorIPcS6_EENS1_12regex_traitsIcEEcET_SE_T0_SF_RKNS1_11basic_regexIT2_T1_EEPKSH_NSt15regex_constants15match_flag_typeE;	.scl	2;	.type	32;	.endef
__ZSt13regex_replaceISt20back_insert_iteratorINSt7__cxx1112basic_stringIcSt11char_traitsIcESaIcEEEEN9__gnu_cxx17__normal_iteratorIPcS6_EENS1_12regex_traitsIcEEcET_SE_T0_SF_RKNS1_11basic_regexIT2_T1_EEPKSH_NSt15regex_constants15match_flag_typeE:
LFB4732:
	.cfi_startproc
	.cfi_personality 0,___gxx_personality_v0
	.cfi_lsda 0,LLSDA4732
	pushl	%ebp
	.cfi_def_cfa_offset 8
	.cfi_offset 5, -8
	movl	%esp, %ebp
	.cfi_def_cfa_register 5
	pushl	%ebx
	subl	$100, %esp
	.cfi_offset 3, -12
	leal	-44(%ebp), %eax
	movl	28(%ebp), %edx
	movl	%edx, 12(%esp)
	movl	20(%ebp), %edx
	movl	%edx, 8(%esp)
	movl	16(%ebp), %edx
	movl	%edx, 4(%esp)
	movl	12(%ebp), %edx
	movl	%edx, (%esp)
	movl	%eax, %ecx
LEHB60:
	call	__ZNSt7__cxx1114regex_iteratorIN9__gnu_cxx17__normal_iteratorIPcNS_12basic_stringIcSt11char_traitsIcESaIcEEEEEcNS_12regex_traitsIcEEEC1ES9_S9_RKNS_11basic_regexIcSB_EENSt15regex_constants15match_flag_typeE
LEHE60:
	subl	$16, %esp
	leal	-76(%ebp), %eax
	movl	%eax, %ecx
LEHB61:
	call	__ZNSt7__cxx1114regex_iteratorIN9__gnu_cxx17__normal_iteratorIPcNS_12basic_stringIcSt11char_traitsIcESaIcEEEEEcNS_12regex_traitsIcEEEC1Ev
LEHE61:
	leal	-44(%ebp), %eax
	leal	-76(%ebp), %edx
	movl	%edx, (%esp)
	movl	%eax, %ecx
LEHB62:
	call	__ZNKSt7__cxx1114regex_iteratorIN9__gnu_cxx17__normal_iteratorIPcNS_12basic_stringIcSt11char_traitsIcESaIcEEEEEcNS_12regex_traitsIcEEEeqERKSC_
	subl	$4, %esp
	testb	%al, %al
	je	L301
	movl	$512, 4(%esp)
	movl	28(%ebp), %eax
	movl	%eax, (%esp)
	call	__ZNSt15regex_constantsanENS_15match_flag_typeES0_
	testl	%eax, %eax
	sete	%al
	testb	%al, %al
	je	L302
	movl	8(%ebp), %eax
	movl	%eax, 8(%esp)
	movl	16(%ebp), %eax
	movl	%eax, 4(%esp)
	movl	12(%ebp), %eax
	movl	%eax, (%esp)
	call	__ZSt4copyIN9__gnu_cxx17__normal_iteratorIPcNSt7__cxx1112basic_stringIcSt11char_traitsIcESaIcEEEEESt20back_insert_iteratorIS8_EET0_T_SD_SC_
	movl	%eax, 8(%ebp)
	jmp	L302
L301:
	movl	$0, -88(%ebp)
	movl	$0, -84(%ebp)
	movb	$0, -80(%ebp)
	movl	24(%ebp), %eax
	movl	%eax, (%esp)
	call	__ZNSt11char_traitsIcE6lengthEPKc
	movl	%eax, -12(%ebp)
L306:
	leal	-44(%ebp), %eax
	leal	-76(%ebp), %edx
	movl	%edx, (%esp)
	movl	%eax, %ecx
	call	__ZNKSt7__cxx1114regex_iteratorIN9__gnu_cxx17__normal_iteratorIPcNS_12basic_stringIcSt11char_traitsIcESaIcEEEEEcNS_12regex_traitsIcEEEneERKSC_
	subl	$4, %esp
	testb	%al, %al
	je	L303
	movl	$512, 4(%esp)
	movl	28(%ebp), %eax
	movl	%eax, (%esp)
	call	__ZNSt15regex_constantsanENS_15match_flag_typeES0_
	testl	%eax, %eax
	sete	%al
	testb	%al, %al
	je	L304
	leal	-44(%ebp), %eax
	movl	%eax, %ecx
	call	__ZNKSt7__cxx1114regex_iteratorIN9__gnu_cxx17__normal_iteratorIPcNS_12basic_stringIcSt11char_traitsIcESaIcEEEEEcNS_12regex_traitsIcEEEptEv
	movl	%eax, %ecx
	call	__ZNKSt7__cxx1113match_resultsIN9__gnu_cxx17__normal_iteratorIPcNS_12basic_stringIcSt11char_traitsIcESaIcEEEEESaINS_9sub_matchIS9_EEEE6prefixEv
	movl	%eax, %ebx
	leal	-44(%ebp), %eax
	movl	%eax, %ecx
	call	__ZNKSt7__cxx1114regex_iteratorIN9__gnu_cxx17__normal_iteratorIPcNS_12basic_stringIcSt11char_traitsIcESaIcEEEEEcNS_12regex_traitsIcEEEptEv
	movl	%eax, %ecx
	call	__ZNKSt7__cxx1113match_resultsIN9__gnu_cxx17__normal_iteratorIPcNS_12basic_stringIcSt11char_traitsIcESaIcEEEEESaINS_9sub_matchIS9_EEEE6prefixEv
	movl	%eax, %edx
	movl	8(%ebp), %eax
	movl	%eax, 8(%esp)
	movl	4(%ebx), %eax
	movl	%eax, 4(%esp)
	movl	(%edx), %eax
	movl	%eax, (%esp)
	call	__ZSt4copyIN9__gnu_cxx17__normal_iteratorIPcNSt7__cxx1112basic_stringIcSt11char_traitsIcESaIcEEEEESt20back_insert_iteratorIS8_EET0_T_SD_SC_
	movl	%eax, 8(%ebp)
L304:
	movl	24(%ebp), %edx
	movl	-12(%ebp), %eax
	leal	(%edx,%eax), %ebx
	leal	-44(%ebp), %eax
	movl	%eax, %ecx
	call	__ZNKSt7__cxx1114regex_iteratorIN9__gnu_cxx17__normal_iteratorIPcNS_12basic_stringIcSt11char_traitsIcESaIcEEEEEcNS_12regex_traitsIcEEEptEv
	movl	%eax, %edx
	movl	28(%ebp), %eax
	movl	%eax, 12(%esp)
	movl	%ebx, 8(%esp)
	movl	24(%ebp), %eax
	movl	%eax, 4(%esp)
	movl	8(%ebp), %eax
	movl	%eax, (%esp)
	movl	%edx, %ecx
	call	__ZNKSt7__cxx1113match_resultsIN9__gnu_cxx17__normal_iteratorIPcNS_12basic_stringIcSt11char_traitsIcESaIcEEEEESaINS_9sub_matchIS9_EEEE6formatISt20back_insert_iteratorIS8_EEET_SH_PKcSJ_NSt15regex_constants15match_flag_typeE
	subl	$16, %esp
	movl	%eax, 8(%ebp)
	leal	-44(%ebp), %eax
	movl	%eax, %ecx
	call	__ZNKSt7__cxx1114regex_iteratorIN9__gnu_cxx17__normal_iteratorIPcNS_12basic_stringIcSt11char_traitsIcESaIcEEEEEcNS_12regex_traitsIcEEEptEv
	movl	%eax, %ecx
	call	__ZNKSt7__cxx1113match_resultsIN9__gnu_cxx17__normal_iteratorIPcNS_12basic_stringIcSt11char_traitsIcESaIcEEEEESaINS_9sub_matchIS9_EEEE6suffixEv
	movl	%eax, %edx
	leal	-88(%ebp), %eax
	movl	%edx, (%esp)
	movl	%eax, %ecx
	call	__ZNSt7__cxx119sub_matchIN9__gnu_cxx17__normal_iteratorIPcNS_12basic_stringIcSt11char_traitsIcESaIcEEEEEEaSERKSA_
	subl	$4, %esp
	movl	$1024, 4(%esp)
	movl	28(%ebp), %eax
	movl	%eax, (%esp)
	call	__ZNSt15regex_constantsanENS_15match_flag_typeES0_
	testl	%eax, %eax
	setne	%al
	testb	%al, %al
	jne	L314
	leal	-44(%ebp), %eax
	movl	%eax, %ecx
	call	__ZNSt7__cxx1114regex_iteratorIN9__gnu_cxx17__normal_iteratorIPcNS_12basic_stringIcSt11char_traitsIcESaIcEEEEEcNS_12regex_traitsIcEEEppEv
	jmp	L306
L314:
	nop
L303:
	movl	$512, 4(%esp)
	movl	28(%ebp), %eax
	movl	%eax, (%esp)
	call	__ZNSt15regex_constantsanENS_15match_flag_typeES0_
	testl	%eax, %eax
	sete	%al
	testb	%al, %al
	je	L302
	movl	8(%ebp), %eax
	movl	%eax, 8(%esp)
	movl	-84(%ebp), %eax
	movl	%eax, 4(%esp)
	movl	-88(%ebp), %eax
	movl	%eax, (%esp)
	call	__ZSt4copyIN9__gnu_cxx17__normal_iteratorIPcNSt7__cxx1112basic_stringIcSt11char_traitsIcESaIcEEEEESt20back_insert_iteratorIS8_EET0_T_SD_SC_
LEHE62:
	movl	%eax, 8(%ebp)
L302:
	movl	8(%ebp), %ebx
	leal	-76(%ebp), %eax
	movl	%eax, %ecx
	call	__ZNSt7__cxx1114regex_iteratorIN9__gnu_cxx17__normal_iteratorIPcNS_12basic_stringIcSt11char_traitsIcESaIcEEEEEcNS_12regex_traitsIcEEED1Ev
	leal	-44(%ebp), %eax
	movl	%eax, %ecx
	call	__ZNSt7__cxx1114regex_iteratorIN9__gnu_cxx17__normal_iteratorIPcNS_12basic_stringIcSt11char_traitsIcESaIcEEEEEcNS_12regex_traitsIcEEED1Ev
	movl	%ebx, %eax
	jmp	L313
L312:
	movl	%eax, %ebx
	leal	-76(%ebp), %eax
	movl	%eax, %ecx
	call	__ZNSt7__cxx1114regex_iteratorIN9__gnu_cxx17__normal_iteratorIPcNS_12basic_stringIcSt11char_traitsIcESaIcEEEEEcNS_12regex_traitsIcEEED1Ev
	jmp	L310
L311:
	movl	%eax, %ebx
L310:
	leal	-44(%ebp), %eax
	movl	%eax, %ecx
	call	__ZNSt7__cxx1114regex_iteratorIN9__gnu_cxx17__normal_iteratorIPcNS_12basic_stringIcSt11char_traitsIcESaIcEEEEEcNS_12regex_traitsIcEEED1Ev
	movl	%ebx, %eax
	movl	%eax, (%esp)
LEHB63:
	call	__Unwind_Resume
LEHE63:
L313:
	movl	-4(%ebp), %ebx
	leave
	.cfi_restore 5
	.cfi_restore 3
	.cfi_def_cfa 4, 4
	ret
	.cfi_endproc
LFE4732:
	.section	.gcc_except_table,"w"
LLSDA4732:
	.byte	0xff
	.byte	0xff
	.byte	0x1
	.uleb128 LLSDACSE4732-LLSDACSB4732
LLSDACSB4732:
	.uleb128 LEHB60-LFB4732
	.uleb128 LEHE60-LEHB60
	.uleb128 0
	.uleb128 0
	.uleb128 LEHB61-LFB4732
	.uleb128 LEHE61-LEHB61
	.uleb128 L311-LFB4732
	.uleb128 0
	.uleb128 LEHB62-LFB4732
	.uleb128 LEHE62-LEHB62
	.uleb128 L312-LFB4732
	.uleb128 0
	.uleb128 LEHB63-LFB4732
	.uleb128 LEHE63-LEHB63
	.uleb128 0
	.uleb128 0
LLSDACSE4732:
	.section	.text$_ZSt13regex_replaceISt20back_insert_iteratorINSt7__cxx1112basic_stringIcSt11char_traitsIcESaIcEEEEN9__gnu_cxx17__normal_iteratorIPcS6_EENS1_12regex_traitsIcEEcET_SE_T0_SF_RKNS1_11basic_regexIT2_T1_EEPKSH_NSt15regex_constants15match_flag_typeE,"x"
	.linkonce discard
	.section	.text$_ZNSt6vectorINSt7__cxx1112basic_stringIcSt11char_traitsIcESaIcEEESaIS5_EEC1Ev,"x"
	.linkonce discard
	.align 2
	.globl	__ZNSt6vectorINSt7__cxx1112basic_stringIcSt11char_traitsIcESaIcEEESaIS5_EEC1Ev
	.def	__ZNSt6vectorINSt7__cxx1112basic_stringIcSt11char_traitsIcESaIcEEESaIS5_EEC1Ev;	.scl	2;	.type	32;	.endef
__ZNSt6vectorINSt7__cxx1112basic_stringIcSt11char_traitsIcESaIcEEESaIS5_EEC1Ev:
LFB4760:
	.cfi_startproc
	.cfi_personality 0,___gxx_personality_v0
	.cfi_lsda 0,LLSDA4760
	pushl	%ebp
	.cfi_def_cfa_offset 8
	.cfi_offset 5, -8
	movl	%esp, %ebp
	.cfi_def_cfa_register 5
	subl	$24, %esp
	movl	%ecx, -12(%ebp)
	movl	-12(%ebp), %eax
	movl	%eax, %ecx
	call	__ZNSt12_Vector_baseINSt7__cxx1112basic_stringIcSt11char_traitsIcESaIcEEESaIS5_EEC2Ev
	nop
	leave
	.cfi_restore 5
	.cfi_def_cfa 4, 4
	ret
	.cfi_endproc
LFE4760:
	.section	.gcc_except_table,"w"
LLSDA4760:
	.byte	0xff
	.byte	0xff
	.byte	0x1
	.uleb128 LLSDACSE4760-LLSDACSB4760
LLSDACSB4760:
LLSDACSE4760:
	.section	.text$_ZNSt6vectorINSt7__cxx1112basic_stringIcSt11char_traitsIcESaIcEEESaIS5_EEC1Ev,"x"
	.linkonce discard
	.section	.text$_ZNSt6vectorINSt7__cxx1112basic_stringIcSt11char_traitsIcESaIcEEESaIS5_EED1Ev,"x"
	.linkonce discard
	.align 2
	.globl	__ZNSt6vectorINSt7__cxx1112basic_stringIcSt11char_traitsIcESaIcEEESaIS5_EED1Ev
	.def	__ZNSt6vectorINSt7__cxx1112basic_stringIcSt11char_traitsIcESaIcEEESaIS5_EED1Ev;	.scl	2;	.type	32;	.endef
__ZNSt6vectorINSt7__cxx1112basic_stringIcSt11char_traitsIcESaIcEEESaIS5_EED1Ev:
LFB4763:
	.cfi_startproc
	.cfi_personality 0,___gxx_personality_v0
	.cfi_lsda 0,LLSDA4763
	pushl	%ebp
	.cfi_def_cfa_offset 8
	.cfi_offset 5, -8
	movl	%esp, %ebp
	.cfi_def_cfa_register 5
	subl	$40, %esp
	movl	%ecx, -12(%ebp)
	movl	-12(%ebp), %eax
	movl	%eax, %ecx
	call	__ZNSt12_Vector_baseINSt7__cxx1112basic_stringIcSt11char_traitsIcESaIcEEESaIS5_EE19_M_get_Tp_allocatorEv
	movl	%eax, %ecx
	movl	-12(%ebp), %eax
	movl	4(%eax), %edx
	movl	-12(%ebp), %eax
	movl	(%eax), %eax
	movl	%ecx, 8(%esp)
	movl	%edx, 4(%esp)
	movl	%eax, (%esp)
	call	__ZSt8_DestroyIPNSt7__cxx1112basic_stringIcSt11char_traitsIcESaIcEEES5_EvT_S7_RSaIT0_E
	movl	-12(%ebp), %eax
	movl	%eax, %ecx
	call	__ZNSt12_Vector_baseINSt7__cxx1112basic_stringIcSt11char_traitsIcESaIcEEESaIS5_EED2Ev
	nop
	leave
	.cfi_restore 5
	.cfi_def_cfa 4, 4
	ret
	.cfi_endproc
LFE4763:
	.section	.gcc_except_table,"w"
LLSDA4763:
	.byte	0xff
	.byte	0xff
	.byte	0x1
	.uleb128 LLSDACSE4763-LLSDACSB4763
LLSDACSB4763:
LLSDACSE4763:
	.section	.text$_ZNSt6vectorINSt7__cxx1112basic_stringIcSt11char_traitsIcESaIcEEESaIS5_EED1Ev,"x"
	.linkonce discard
	.section	.text$_ZStneIcSt11char_traitsIcESaIcEEbRKNSt7__cxx1112basic_stringIT_T0_T1_EEPKS5_,"x"
	.linkonce discard
	.globl	__ZStneIcSt11char_traitsIcESaIcEEbRKNSt7__cxx1112basic_stringIT_T0_T1_EEPKS5_
	.def	__ZStneIcSt11char_traitsIcESaIcEEbRKNSt7__cxx1112basic_stringIT_T0_T1_EEPKS5_;	.scl	2;	.type	32;	.endef
__ZStneIcSt11char_traitsIcESaIcEEbRKNSt7__cxx1112basic_stringIT_T0_T1_EEPKS5_:
LFB4764:
	.cfi_startproc
	pushl	%ebp
	.cfi_def_cfa_offset 8
	.cfi_offset 5, -8
	movl	%esp, %ebp
	.cfi_def_cfa_register 5
	subl	$24, %esp
	movl	12(%ebp), %eax
	movl	%eax, 4(%esp)
	movl	8(%ebp), %eax
	movl	%eax, (%esp)
	call	__ZSteqIcSt11char_traitsIcESaIcEEbRKNSt7__cxx1112basic_stringIT_T0_T1_EEPKS5_
	xorl	$1, %eax
	leave
	.cfi_restore 5
	.cfi_def_cfa 4, 4
	ret
	.cfi_endproc
LFE4764:
	.section	.text$_ZNSt6vectorINSt7__cxx1112basic_stringIcSt11char_traitsIcESaIcEEESaIS5_EE3endEv,"x"
	.linkonce discard
	.align 2
	.globl	__ZNSt6vectorINSt7__cxx1112basic_stringIcSt11char_traitsIcESaIcEEESaIS5_EE3endEv
	.def	__ZNSt6vectorINSt7__cxx1112basic_stringIcSt11char_traitsIcESaIcEEESaIS5_EE3endEv;	.scl	2;	.type	32;	.endef
__ZNSt6vectorINSt7__cxx1112basic_stringIcSt11char_traitsIcESaIcEEESaIS5_EE3endEv:
LFB4765:
	.cfi_startproc
	pushl	%ebp
	.cfi_def_cfa_offset 8
	.cfi_offset 5, -8
	movl	%esp, %ebp
	.cfi_def_cfa_register 5
	subl	$56, %esp
	movl	%ecx, -28(%ebp)
	movl	-28(%ebp), %eax
	leal	4(%eax), %edx
	leal	-12(%ebp), %eax
	movl	%edx, (%esp)
	movl	%eax, %ecx
	call	__ZN9__gnu_cxx17__normal_iteratorIPNSt7__cxx1112basic_stringIcSt11char_traitsIcESaIcEEESt6vectorIS6_SaIS6_EEEC1ERKS7_
	subl	$4, %esp
	movl	-12(%ebp), %eax
	leave
	.cfi_restore 5
	.cfi_def_cfa 4, 4
	ret
	.cfi_endproc
LFE4765:
	.section	.text$_ZN9__gnu_cxx17__normal_iteratorIPKNSt7__cxx1112basic_stringIcSt11char_traitsIcESaIcEEESt6vectorIS6_SaIS6_EEEC1IPS6_EERKNS0_IT_NS_11__enable_ifIXsrSt10__are_sameISF_SE_E7__valueESB_E6__typeEEE,"x"
	.linkonce discard
	.align 2
	.globl	__ZN9__gnu_cxx17__normal_iteratorIPKNSt7__cxx1112basic_stringIcSt11char_traitsIcESaIcEEESt6vectorIS6_SaIS6_EEEC1IPS6_EERKNS0_IT_NS_11__enable_ifIXsrSt10__are_sameISF_SE_E7__valueESB_E6__typeEEE
	.def	__ZN9__gnu_cxx17__normal_iteratorIPKNSt7__cxx1112basic_stringIcSt11char_traitsIcESaIcEEESt6vectorIS6_SaIS6_EEEC1IPS6_EERKNS0_IT_NS_11__enable_ifIXsrSt10__are_sameISF_SE_E7__valueESB_E6__typeEEE;	.scl	2;	.type	32;	.endef
__ZN9__gnu_cxx17__normal_iteratorIPKNSt7__cxx1112basic_stringIcSt11char_traitsIcESaIcEEESt6vectorIS6_SaIS6_EEEC1IPS6_EERKNS0_IT_NS_11__enable_ifIXsrSt10__are_sameISF_SE_E7__valueESB_E6__typeEEE:
LFB4768:
	.cfi_startproc
	pushl	%ebp
	.cfi_def_cfa_offset 8
	.cfi_offset 5, -8
	movl	%esp, %ebp
	.cfi_def_cfa_register 5
	subl	$24, %esp
	movl	%ecx, -12(%ebp)
	movl	8(%ebp), %ecx
	call	__ZNK9__gnu_cxx17__normal_iteratorIPNSt7__cxx1112basic_stringIcSt11char_traitsIcESaIcEEESt6vectorIS6_SaIS6_EEE4baseEv
	movl	(%eax), %edx
	movl	-12(%ebp), %eax
	movl	%edx, (%eax)
	nop
	leave
	.cfi_restore 5
	.cfi_def_cfa 4, 4
	ret	$4
	.cfi_endproc
LFE4768:
	.section	.text$_ZNSt6vectorINSt7__cxx1112basic_stringIcSt11char_traitsIcESaIcEEESaIS5_EE6insertEN9__gnu_cxx17__normal_iteratorIPKS5_S7_EERSA_,"x"
	.linkonce discard
	.align 2
	.globl	__ZNSt6vectorINSt7__cxx1112basic_stringIcSt11char_traitsIcESaIcEEESaIS5_EE6insertEN9__gnu_cxx17__normal_iteratorIPKS5_S7_EERSA_
	.def	__ZNSt6vectorINSt7__cxx1112basic_stringIcSt11char_traitsIcESaIcEEESaIS5_EE6insertEN9__gnu_cxx17__normal_iteratorIPKS5_S7_EERSA_;	.scl	2;	.type	32;	.endef
__ZNSt6vectorINSt7__cxx1112basic_stringIcSt11char_traitsIcESaIcEEESaIS5_EE6insertEN9__gnu_cxx17__normal_iteratorIPKS5_S7_EERSA_:
LFB4769:
	.cfi_startproc
	.cfi_personality 0,___gxx_personality_v0
	.cfi_lsda 0,LLSDA4769
	pushl	%ebp
	.cfi_def_cfa_offset 8
	.cfi_offset 5, -8
	movl	%esp, %ebp
	.cfi_def_cfa_register 5
	pushl	%ebx
	subl	$100, %esp
	.cfi_offset 3, -12
	movl	%ecx, -76(%ebp)
	movl	-76(%ebp), %eax
	movl	%eax, %ecx
	call	__ZNSt6vectorINSt7__cxx1112basic_stringIcSt11char_traitsIcESaIcEEESaIS5_EE5beginEv
	movl	%eax, -36(%ebp)
	leal	-36(%ebp), %eax
	movl	%eax, 4(%esp)
	leal	8(%ebp), %eax
	movl	%eax, (%esp)
	call	__ZN9__gnu_cxxmiIPKNSt7__cxx1112basic_stringIcSt11char_traitsIcESaIcEEEPS6_St6vectorIS6_SaIS6_EEEEDTmicldtfp_4baseEcldtfp0_4baseEERKNS_17__normal_iteratorIT_T1_EERKNSE_IT0_SG_EE
	movl	%eax, -12(%ebp)
	movl	$0, %ebx
	movl	-76(%ebp), %eax
	movl	4(%eax), %edx
	movl	-76(%ebp), %eax
	movl	8(%eax), %eax
	cmpl	%eax, %edx
	je	L323
	movl	-76(%ebp), %eax
	movl	%eax, %ecx
	call	__ZNSt6vectorINSt7__cxx1112basic_stringIcSt11char_traitsIcESaIcEEESaIS5_EE3endEv
	movl	%eax, -32(%ebp)
	movl	$1, %ebx
	leal	-32(%ebp), %eax
	movl	%eax, 4(%esp)
	leal	8(%ebp), %eax
	movl	%eax, (%esp)
	call	__ZN9__gnu_cxxeqIPKNSt7__cxx1112basic_stringIcSt11char_traitsIcESaIcEEEPS6_St6vectorIS6_SaIS6_EEEEbRKNS_17__normal_iteratorIT_T1_EERKNSD_IT0_SF_EE
	testb	%al, %al
	je	L323
	movl	$1, %eax
	jmp	L324
L323:
	movl	$0, %eax
L324:
	testb	%bl, %bl
	testb	%al, %al
	je	L326
	movl	-76(%ebp), %eax
	movl	4(%eax), %edx
	movl	-76(%ebp), %eax
	movl	12(%ebp), %ecx
	movl	%ecx, 8(%esp)
	movl	%edx, 4(%esp)
	movl	%eax, (%esp)
LEHB64:
	call	__ZNSt16allocator_traitsISaINSt7__cxx1112basic_stringIcSt11char_traitsIcESaIcEEEEE9constructIS5_JRKS5_EEEvRS6_PT_DpOT0_
	movl	-76(%ebp), %eax
	movl	4(%eax), %eax
	leal	24(%eax), %edx
	movl	-76(%ebp), %eax
	movl	%edx, 4(%eax)
	jmp	L327
L326:
	movl	-76(%ebp), %eax
	movl	%eax, %ecx
	call	__ZNKSt6vectorINSt7__cxx1112basic_stringIcSt11char_traitsIcESaIcEEESaIS5_EE6cbeginEv
	movl	%eax, -28(%ebp)
	leal	-28(%ebp), %eax
	movl	%eax, 4(%esp)
	leal	8(%ebp), %eax
	movl	%eax, (%esp)
	call	__ZN9__gnu_cxxmiIPKNSt7__cxx1112basic_stringIcSt11char_traitsIcESaIcEEESt6vectorIS6_SaIS6_EEEENS_17__normal_iteratorIT_T0_E15difference_typeERKSF_SI_
	movl	%eax, %ebx
	movl	-76(%ebp), %eax
	movl	%eax, %ecx
	call	__ZNSt6vectorINSt7__cxx1112basic_stringIcSt11char_traitsIcESaIcEEESaIS5_EE5beginEv
	movl	%eax, -24(%ebp)
	leal	-24(%ebp), %eax
	movl	%ebx, (%esp)
	movl	%eax, %ecx
	call	__ZNK9__gnu_cxx17__normal_iteratorIPNSt7__cxx1112basic_stringIcSt11char_traitsIcESaIcEEESt6vectorIS6_SaIS6_EEEplEi
	subl	$4, %esp
	movl	%eax, -40(%ebp)
	movl	-76(%ebp), %eax
	movl	4(%eax), %edx
	movl	-76(%ebp), %eax
	movl	8(%eax), %eax
	cmpl	%eax, %edx
	je	L328
	leal	-64(%ebp), %eax
	movl	12(%ebp), %edx
	movl	%edx, (%esp)
	movl	%eax, %ecx
	call	__ZNSt7__cxx1112basic_stringIcSt11char_traitsIcESaIcEEC1ERKS4_
LEHE64:
	subl	$4, %esp
	leal	-64(%ebp), %eax
	movl	%eax, (%esp)
	call	__ZSt4moveIRNSt7__cxx1112basic_stringIcSt11char_traitsIcESaIcEEEEONSt16remove_referenceIT_E4typeEOS8_
	movl	%eax, %edx
	movl	-76(%ebp), %eax
	movl	%edx, 4(%esp)
	movl	-40(%ebp), %edx
	movl	%edx, (%esp)
	movl	%eax, %ecx
LEHB65:
	call	__ZNSt6vectorINSt7__cxx1112basic_stringIcSt11char_traitsIcESaIcEEESaIS5_EE13_M_insert_auxIJS5_EEEvN9__gnu_cxx17__normal_iteratorIPS5_S7_EEDpOT_
LEHE65:
	subl	$8, %esp
	leal	-64(%ebp), %eax
	movl	%eax, %ecx
	call	__ZNSt7__cxx1112basic_stringIcSt11char_traitsIcESaIcEED1Ev
	jmp	L327
L328:
	movl	-76(%ebp), %eax
	movl	12(%ebp), %edx
	movl	%edx, 4(%esp)
	movl	-40(%ebp), %edx
	movl	%edx, (%esp)
	movl	%eax, %ecx
LEHB66:
	call	__ZNSt6vectorINSt7__cxx1112basic_stringIcSt11char_traitsIcESaIcEEESaIS5_EE13_M_insert_auxIJRKS5_EEEvN9__gnu_cxx17__normal_iteratorIPS5_S7_EEDpOT_
	subl	$8, %esp
L327:
	movl	-76(%ebp), %eax
	movl	(%eax), %ecx
	movl	-12(%ebp), %edx
	movl	%edx, %eax
	addl	%eax, %eax
	addl	%edx, %eax
	sall	$3, %eax
	addl	%ecx, %eax
	movl	%eax, -16(%ebp)
	leal	-20(%ebp), %eax
	leal	-16(%ebp), %edx
	movl	%edx, (%esp)
	movl	%eax, %ecx
	call	__ZN9__gnu_cxx17__normal_iteratorIPNSt7__cxx1112basic_stringIcSt11char_traitsIcESaIcEEESt6vectorIS6_SaIS6_EEEC1ERKS7_
	subl	$4, %esp
	movl	-20(%ebp), %eax
	jmp	L333
L332:
	movl	%eax, %ebx
	leal	-64(%ebp), %eax
	movl	%eax, %ecx
	call	__ZNSt7__cxx1112basic_stringIcSt11char_traitsIcESaIcEED1Ev
	movl	%ebx, %eax
	movl	%eax, (%esp)
	call	__Unwind_Resume
LEHE66:
L333:
	movl	-4(%ebp), %ebx
	leave
	.cfi_restore 5
	.cfi_restore 3
	.cfi_def_cfa 4, 4
	ret	$8
	.cfi_endproc
LFE4769:
	.section	.gcc_except_table,"w"
LLSDA4769:
	.byte	0xff
	.byte	0xff
	.byte	0x1
	.uleb128 LLSDACSE4769-LLSDACSB4769
LLSDACSB4769:
	.uleb128 LEHB64-LFB4769
	.uleb128 LEHE64-LEHB64
	.uleb128 0
	.uleb128 0
	.uleb128 LEHB65-LFB4769
	.uleb128 LEHE65-LEHB65
	.uleb128 L332-LFB4769
	.uleb128 0
	.uleb128 LEHB66-LFB4769
	.uleb128 LEHE66-LEHB66
	.uleb128 0
	.uleb128 0
LLSDACSE4769:
	.section	.text$_ZNSt6vectorINSt7__cxx1112basic_stringIcSt11char_traitsIcESaIcEEESaIS5_EE6insertEN9__gnu_cxx17__normal_iteratorIPKS5_S7_EERSA_,"x"
	.linkonce discard
	.section	.text$_ZNKSt6vectorINSt7__cxx1112basic_stringIcSt11char_traitsIcESaIcEEESaIS5_EE4sizeEv,"x"
	.linkonce discard
	.align 2
	.globl	__ZNKSt6vectorINSt7__cxx1112basic_stringIcSt11char_traitsIcESaIcEEESaIS5_EE4sizeEv
	.def	__ZNKSt6vectorINSt7__cxx1112basic_stringIcSt11char_traitsIcESaIcEEESaIS5_EE4sizeEv;	.scl	2;	.type	32;	.endef
__ZNKSt6vectorINSt7__cxx1112basic_stringIcSt11char_traitsIcESaIcEEESaIS5_EE4sizeEv:
LFB4772:
	.cfi_startproc
	pushl	%ebp
	.cfi_def_cfa_offset 8
	.cfi_offset 5, -8
	movl	%esp, %ebp
	.cfi_def_cfa_register 5
	subl	$4, %esp
	movl	%ecx, -4(%ebp)
	movl	-4(%ebp), %eax
	movl	4(%eax), %eax
	movl	%eax, %edx
	movl	-4(%ebp), %eax
	movl	(%eax), %eax
	subl	%eax, %edx
	movl	%edx, %eax
	sarl	$3, %eax
	imull	$-1431655765, %eax, %eax
	leave
	.cfi_restore 5
	.cfi_def_cfa 4, 4
	ret
	.cfi_endproc
LFE4772:
	.section	.text$_ZNSt6vectorINSt7__cxx1112basic_stringIcSt11char_traitsIcESaIcEEESaIS5_EEixEj,"x"
	.linkonce discard
	.align 2
	.globl	__ZNSt6vectorINSt7__cxx1112basic_stringIcSt11char_traitsIcESaIcEEESaIS5_EEixEj
	.def	__ZNSt6vectorINSt7__cxx1112basic_stringIcSt11char_traitsIcESaIcEEESaIS5_EEixEj;	.scl	2;	.type	32;	.endef
__ZNSt6vectorINSt7__cxx1112basic_stringIcSt11char_traitsIcESaIcEEESaIS5_EEixEj:
LFB4773:
	.cfi_startproc
	pushl	%ebp
	.cfi_def_cfa_offset 8
	.cfi_offset 5, -8
	movl	%esp, %ebp
	.cfi_def_cfa_register 5
	subl	$4, %esp
	movl	%ecx, -4(%ebp)
	movl	-4(%ebp), %eax
	movl	(%eax), %ecx
	movl	8(%ebp), %edx
	movl	%edx, %eax
	addl	%eax, %eax
	addl	%edx, %eax
	sall	$3, %eax
	addl	%ecx, %eax
	leave
	.cfi_restore 5
	.cfi_def_cfa 4, 4
	ret	$4
	.cfi_endproc
LFE4773:
	.section	.text$_ZN9__gnu_cxx14__alloc_traitsISaINSt7__cxx1112basic_stringIcSt11char_traitsIcESaIcEEEEE27_S_propagate_on_copy_assignEv,"x"
	.linkonce discard
	.globl	__ZN9__gnu_cxx14__alloc_traitsISaINSt7__cxx1112basic_stringIcSt11char_traitsIcESaIcEEEEE27_S_propagate_on_copy_assignEv
	.def	__ZN9__gnu_cxx14__alloc_traitsISaINSt7__cxx1112basic_stringIcSt11char_traitsIcESaIcEEEEE27_S_propagate_on_copy_assignEv;	.scl	2;	.type	32;	.endef
__ZN9__gnu_cxx14__alloc_traitsISaINSt7__cxx1112basic_stringIcSt11char_traitsIcESaIcEEEEE27_S_propagate_on_copy_assignEv:
LFB4778:
	.cfi_startproc
	pushl	%ebp
	.cfi_def_cfa_offset 8
	.cfi_offset 5, -8
	movl	%esp, %ebp
	.cfi_def_cfa_register 5
	movl	$0, %eax
	popl	%ebp
	.cfi_restore 5
	.cfi_def_cfa 4, 4
	ret
	.cfi_endproc
LFE4778:
	.section	.text$_ZN9__gnu_cxx14__alloc_traitsISaINSt7__cxx1112basic_stringIcSt11char_traitsIcESaIcEEEEE15_S_always_equalEv,"x"
	.linkonce discard
	.globl	__ZN9__gnu_cxx14__alloc_traitsISaINSt7__cxx1112basic_stringIcSt11char_traitsIcESaIcEEEEE15_S_always_equalEv
	.def	__ZN9__gnu_cxx14__alloc_traitsISaINSt7__cxx1112basic_stringIcSt11char_traitsIcESaIcEEEEE15_S_always_equalEv;	.scl	2;	.type	32;	.endef
__ZN9__gnu_cxx14__alloc_traitsISaINSt7__cxx1112basic_stringIcSt11char_traitsIcESaIcEEEEE15_S_always_equalEv:
LFB4779:
	.cfi_startproc
	pushl	%ebp
	.cfi_def_cfa_offset 8
	.cfi_offset 5, -8
	movl	%esp, %ebp
	.cfi_def_cfa_register 5
	movl	$1, %eax
	popl	%ebp
	.cfi_restore 5
	.cfi_def_cfa 4, 4
	ret
	.cfi_endproc
LFE4779:
	.section	.text$_ZNSt6vectorINSt7__cxx1112basic_stringIcSt11char_traitsIcESaIcEEESaIS5_EEaSERKS7_,"x"
	.linkonce discard
	.align 2
	.globl	__ZNSt6vectorINSt7__cxx1112basic_stringIcSt11char_traitsIcESaIcEEESaIS5_EEaSERKS7_
	.def	__ZNSt6vectorINSt7__cxx1112basic_stringIcSt11char_traitsIcESaIcEEESaIS5_EEaSERKS7_;	.scl	2;	.type	32;	.endef
__ZNSt6vectorINSt7__cxx1112basic_stringIcSt11char_traitsIcESaIcEEESaIS5_EEaSERKS7_:
LFB4777:
	.cfi_startproc
	pushl	%ebp
	.cfi_def_cfa_offset 8
	.cfi_offset 5, -8
	movl	%esp, %ebp
	.cfi_def_cfa_register 5
	pushl	%edi
	pushl	%esi
	pushl	%ebx
	subl	$60, %esp
	.cfi_offset 7, -12
	.cfi_offset 6, -16
	.cfi_offset 3, -20
	movl	%ecx, -44(%ebp)
	movl	8(%ebp), %eax
	cmpl	-44(%ebp), %eax
	je	L343
	call	__ZN9__gnu_cxx14__alloc_traitsISaINSt7__cxx1112basic_stringIcSt11char_traitsIcESaIcEEEEE27_S_propagate_on_copy_assignEv
	testb	%al, %al
	je	L344
	call	__ZN9__gnu_cxx14__alloc_traitsISaINSt7__cxx1112basic_stringIcSt11char_traitsIcESaIcEEEEE15_S_always_equalEv
	xorl	$1, %eax
	testb	%al, %al
	je	L345
	movl	8(%ebp), %eax
	movl	%eax, %ecx
	call	__ZNKSt12_Vector_baseINSt7__cxx1112basic_stringIcSt11char_traitsIcESaIcEEESaIS5_EE19_M_get_Tp_allocatorEv
	movl	%eax, %ebx
	movl	-44(%ebp), %eax
	movl	%eax, %ecx
	call	__ZNSt12_Vector_baseINSt7__cxx1112basic_stringIcSt11char_traitsIcESaIcEEESaIS5_EE19_M_get_Tp_allocatorEv
	movl	%ebx, 4(%esp)
	movl	%eax, (%esp)
	call	__ZStneINSt7__cxx1112basic_stringIcSt11char_traitsIcESaIcEEEEbRKSaIT_ES9_
	testb	%al, %al
	je	L345
	movl	$1, %eax
	jmp	L346
L345:
	movl	$0, %eax
L346:
	testb	%al, %al
	je	L347
	movl	-44(%ebp), %eax
	movl	%eax, %ecx
	call	__ZNSt6vectorINSt7__cxx1112basic_stringIcSt11char_traitsIcESaIcEEESaIS5_EE5clearEv
	movl	-44(%ebp), %eax
	movl	8(%eax), %eax
	movl	%eax, %edx
	movl	-44(%ebp), %eax
	movl	(%eax), %eax
	subl	%eax, %edx
	movl	%edx, %eax
	sarl	$3, %eax
	imull	$-1431655765, %eax, %eax
	movl	%eax, %ecx
	movl	-44(%ebp), %eax
	movl	(%eax), %edx
	movl	-44(%ebp), %eax
	movl	%ecx, 4(%esp)
	movl	%edx, (%esp)
	movl	%eax, %ecx
	call	__ZNSt12_Vector_baseINSt7__cxx1112basic_stringIcSt11char_traitsIcESaIcEEESaIS5_EE13_M_deallocateEPS5_j
	subl	$8, %esp
	movl	-44(%ebp), %eax
	movl	$0, (%eax)
	movl	-44(%ebp), %eax
	movl	$0, 4(%eax)
	movl	-44(%ebp), %eax
	movl	$0, 8(%eax)
L347:
	movl	8(%ebp), %eax
	movl	%eax, %ecx
	call	__ZNKSt12_Vector_baseINSt7__cxx1112basic_stringIcSt11char_traitsIcESaIcEEESaIS5_EE19_M_get_Tp_allocatorEv
	movl	%eax, %ebx
	movl	-44(%ebp), %eax
	movl	%eax, %ecx
	call	__ZNSt12_Vector_baseINSt7__cxx1112basic_stringIcSt11char_traitsIcESaIcEEESaIS5_EE19_M_get_Tp_allocatorEv
	movl	%ebx, 4(%esp)
	movl	%eax, (%esp)
	call	__ZSt15__alloc_on_copyISaINSt7__cxx1112basic_stringIcSt11char_traitsIcESaIcEEEEEvRT_RKS7_
L344:
	movl	8(%ebp), %ecx
	call	__ZNKSt6vectorINSt7__cxx1112basic_stringIcSt11char_traitsIcESaIcEEESaIS5_EE4sizeEv
	movl	%eax, -28(%ebp)
	movl	-44(%ebp), %eax
	movl	%eax, %ecx
	call	__ZNKSt6vectorINSt7__cxx1112basic_stringIcSt11char_traitsIcESaIcEEESaIS5_EE8capacityEv
	cmpl	-28(%ebp), %eax
	setb	%al
	testb	%al, %al
	je	L348
	movl	8(%ebp), %ecx
	call	__ZNKSt6vectorINSt7__cxx1112basic_stringIcSt11char_traitsIcESaIcEEESaIS5_EE3endEv
	movl	%eax, %ebx
	movl	8(%ebp), %ecx
	call	__ZNKSt6vectorINSt7__cxx1112basic_stringIcSt11char_traitsIcESaIcEEESaIS5_EE5beginEv
	movl	%eax, %edx
	movl	-44(%ebp), %eax
	movl	%ebx, 8(%esp)
	movl	%edx, 4(%esp)
	movl	-28(%ebp), %edx
	movl	%edx, (%esp)
	movl	%eax, %ecx
	call	__ZNSt6vectorINSt7__cxx1112basic_stringIcSt11char_traitsIcESaIcEEESaIS5_EE20_M_allocate_and_copyIN9__gnu_cxx17__normal_iteratorIPKS5_S7_EEEEPS5_jT_SF_
	subl	$12, %esp
	movl	%eax, -32(%ebp)
	movl	-44(%ebp), %eax
	movl	%eax, %ecx
	call	__ZNSt12_Vector_baseINSt7__cxx1112basic_stringIcSt11char_traitsIcESaIcEEESaIS5_EE19_M_get_Tp_allocatorEv
	movl	%eax, %ecx
	movl	-44(%ebp), %eax
	movl	4(%eax), %edx
	movl	-44(%ebp), %eax
	movl	(%eax), %eax
	movl	%ecx, 8(%esp)
	movl	%edx, 4(%esp)
	movl	%eax, (%esp)
	call	__ZSt8_DestroyIPNSt7__cxx1112basic_stringIcSt11char_traitsIcESaIcEEES5_EvT_S7_RSaIT0_E
	movl	-44(%ebp), %eax
	movl	8(%eax), %eax
	movl	%eax, %edx
	movl	-44(%ebp), %eax
	movl	(%eax), %eax
	subl	%eax, %edx
	movl	%edx, %eax
	sarl	$3, %eax
	imull	$-1431655765, %eax, %eax
	movl	%eax, %ecx
	movl	-44(%ebp), %eax
	movl	(%eax), %edx
	movl	-44(%ebp), %eax
	movl	%ecx, 4(%esp)
	movl	%edx, (%esp)
	movl	%eax, %ecx
	call	__ZNSt12_Vector_baseINSt7__cxx1112basic_stringIcSt11char_traitsIcESaIcEEESaIS5_EE13_M_deallocateEPS5_j
	subl	$8, %esp
	movl	-44(%ebp), %eax
	movl	-32(%ebp), %edx
	movl	%edx, (%eax)
	movl	-44(%ebp), %eax
	movl	(%eax), %ecx
	movl	-28(%ebp), %edx
	movl	%edx, %eax
	addl	%eax, %eax
	addl	%edx, %eax
	sall	$3, %eax
	leal	(%ecx,%eax), %edx
	movl	-44(%ebp), %eax
	movl	%edx, 8(%eax)
	jmp	L349
L348:
	movl	-44(%ebp), %eax
	movl	%eax, %ecx
	call	__ZNKSt6vectorINSt7__cxx1112basic_stringIcSt11char_traitsIcESaIcEEESaIS5_EE4sizeEv
	cmpl	-28(%ebp), %eax
	setnb	%al
	testb	%al, %al
	je	L350
	movl	-44(%ebp), %eax
	movl	%eax, %ecx
	call	__ZNSt12_Vector_baseINSt7__cxx1112basic_stringIcSt11char_traitsIcESaIcEEESaIS5_EE19_M_get_Tp_allocatorEv
	movl	%eax, %esi
	movl	-44(%ebp), %eax
	movl	%eax, %ecx
	call	__ZNSt6vectorINSt7__cxx1112basic_stringIcSt11char_traitsIcESaIcEEESaIS5_EE3endEv
	movl	%eax, %ebx
	movl	-44(%ebp), %eax
	movl	%eax, %ecx
	call	__ZNSt6vectorINSt7__cxx1112basic_stringIcSt11char_traitsIcESaIcEEESaIS5_EE5beginEv
	movl	%eax, -48(%ebp)
	movl	8(%ebp), %ecx
	call	__ZNKSt6vectorINSt7__cxx1112basic_stringIcSt11char_traitsIcESaIcEEESaIS5_EE3endEv
	movl	%eax, %edi
	movl	8(%ebp), %ecx
	call	__ZNKSt6vectorINSt7__cxx1112basic_stringIcSt11char_traitsIcESaIcEEESaIS5_EE5beginEv
	movl	-48(%ebp), %ecx
	movl	%ecx, 8(%esp)
	movl	%edi, 4(%esp)
	movl	%eax, (%esp)
	call	__ZSt4copyIN9__gnu_cxx17__normal_iteratorIPKNSt7__cxx1112basic_stringIcSt11char_traitsIcESaIcEEESt6vectorIS7_SaIS7_EEEENS1_IPS7_SC_EEET0_T_SH_SG_
	movl	%esi, 8(%esp)
	movl	%ebx, 4(%esp)
	movl	%eax, (%esp)
	call	__ZSt8_DestroyIN9__gnu_cxx17__normal_iteratorIPNSt7__cxx1112basic_stringIcSt11char_traitsIcESaIcEEESt6vectorIS7_SaIS7_EEEES7_EvT_SD_RSaIT0_E
	jmp	L349
L350:
	movl	-44(%ebp), %eax
	movl	(%eax), %ebx
	movl	8(%ebp), %eax
	movl	(%eax), %esi
	movl	-44(%ebp), %eax
	movl	%eax, %ecx
	call	__ZNKSt6vectorINSt7__cxx1112basic_stringIcSt11char_traitsIcESaIcEEESaIS5_EE4sizeEv
	movl	%eax, %edx
	movl	%edx, %eax
	addl	%eax, %eax
	addl	%edx, %eax
	sall	$3, %eax
	leal	(%esi,%eax), %edx
	movl	8(%ebp), %eax
	movl	(%eax), %eax
	movl	%ebx, 8(%esp)
	movl	%edx, 4(%esp)
	movl	%eax, (%esp)
	call	__ZSt4copyIPNSt7__cxx1112basic_stringIcSt11char_traitsIcESaIcEEES6_ET0_T_S8_S7_
	movl	-44(%ebp), %eax
	movl	%eax, %ecx
	call	__ZNSt12_Vector_baseINSt7__cxx1112basic_stringIcSt11char_traitsIcESaIcEEESaIS5_EE19_M_get_Tp_allocatorEv
	movl	%eax, -48(%ebp)
	movl	-44(%ebp), %eax
	movl	4(%eax), %esi
	movl	8(%ebp), %eax
	movl	4(%eax), %ebx
	movl	8(%ebp), %eax
	movl	(%eax), %edi
	movl	-44(%ebp), %eax
	movl	%eax, %ecx
	call	__ZNKSt6vectorINSt7__cxx1112basic_stringIcSt11char_traitsIcESaIcEEESaIS5_EE4sizeEv
	movl	%eax, %edx
	movl	%edx, %eax
	addl	%eax, %eax
	addl	%edx, %eax
	sall	$3, %eax
	addl	%edi, %eax
	movl	-48(%ebp), %edi
	movl	%edi, 12(%esp)
	movl	%esi, 8(%esp)
	movl	%ebx, 4(%esp)
	movl	%eax, (%esp)
	call	__ZSt22__uninitialized_copy_aIPNSt7__cxx1112basic_stringIcSt11char_traitsIcESaIcEEES6_S5_ET0_T_S8_S7_RSaIT1_E
L349:
	movl	-44(%ebp), %eax
	movl	(%eax), %ecx
	movl	-28(%ebp), %edx
	movl	%edx, %eax
	addl	%eax, %eax
	addl	%edx, %eax
	sall	$3, %eax
	leal	(%ecx,%eax), %edx
	movl	-44(%ebp), %eax
	movl	%edx, 4(%eax)
L343:
	movl	-44(%ebp), %eax
	leal	-12(%ebp), %esp
	popl	%ebx
	.cfi_restore 3
	popl	%esi
	.cfi_restore 6
	popl	%edi
	.cfi_restore 7
	popl	%ebp
	.cfi_restore 5
	.cfi_def_cfa 4, 4
	ret	$4
	.cfi_endproc
LFE4777:
	.section	.text$_ZSt11regex_matchIN9__gnu_cxx17__normal_iteratorIPcNSt7__cxx1112basic_stringIcSt11char_traitsIcESaIcEEEEEcNS3_12regex_traitsIcEEEbT_SC_RKNS3_11basic_regexIT0_T1_EENSt15regex_constants15match_flag_typeE,"x"
	.linkonce discard
	.globl	__ZSt11regex_matchIN9__gnu_cxx17__normal_iteratorIPcNSt7__cxx1112basic_stringIcSt11char_traitsIcESaIcEEEEEcNS3_12regex_traitsIcEEEbT_SC_RKNS3_11basic_regexIT0_T1_EENSt15regex_constants15match_flag_typeE
	.def	__ZSt11regex_matchIN9__gnu_cxx17__normal_iteratorIPcNSt7__cxx1112basic_stringIcSt11char_traitsIcESaIcEEEEEcNS3_12regex_traitsIcEEEbT_SC_RKNS3_11basic_regexIT0_T1_EENSt15regex_constants15match_flag_typeE;	.scl	2;	.type	32;	.endef
__ZSt11regex_matchIN9__gnu_cxx17__normal_iteratorIPcNSt7__cxx1112basic_stringIcSt11char_traitsIcESaIcEEEEEcNS3_12regex_traitsIcEEEbT_SC_RKNS3_11basic_regexIT0_T1_EENSt15regex_constants15match_flag_typeE:
LFB4780:
	.cfi_startproc
	.cfi_personality 0,___gxx_personality_v0
	.cfi_lsda 0,LLSDA4780
	pushl	%ebp
	.cfi_def_cfa_offset 8
	.cfi_offset 5, -8
	movl	%esp, %ebp
	.cfi_def_cfa_register 5
	pushl	%ebx
	subl	$68, %esp
	.cfi_offset 3, -12
	leal	-9(%ebp), %eax
	movl	%eax, %ecx
	call	__ZNSaINSt7__cxx119sub_matchIN9__gnu_cxx17__normal_iteratorIPcNS_12basic_stringIcSt11char_traitsIcESaIcEEEEEEEEC1Ev
	leal	-28(%ebp), %eax
	leal	-9(%ebp), %edx
	movl	%edx, (%esp)
	movl	%eax, %ecx
	call	__ZNSt7__cxx1113match_resultsIN9__gnu_cxx17__normal_iteratorIPcNS_12basic_stringIcSt11char_traitsIcESaIcEEEEESaINS_9sub_matchIS9_EEEEC1ERKSC_
	subl	$4, %esp
	leal	-9(%ebp), %eax
	movl	%eax, %ecx
	call	__ZNSaINSt7__cxx119sub_matchIN9__gnu_cxx17__normal_iteratorIPcNS_12basic_stringIcSt11char_traitsIcESaIcEEEEEEEED1Ev
	movl	20(%ebp), %eax
	movl	%eax, 16(%esp)
	movl	16(%ebp), %eax
	movl	%eax, 12(%esp)
	leal	-28(%ebp), %eax
	movl	%eax, 8(%esp)
	movl	12(%ebp), %eax
	movl	%eax, 4(%esp)
	movl	8(%ebp), %eax
	movl	%eax, (%esp)
LEHB67:
	call	__ZSt11regex_matchIN9__gnu_cxx17__normal_iteratorIPcNSt7__cxx1112basic_stringIcSt11char_traitsIcESaIcEEEEESaINS3_9sub_matchIS9_EEEcNS3_12regex_traitsIcEEEbT_SF_RNS3_13match_resultsISF_T0_EERKNS3_11basic_regexIT1_T2_EENSt15regex_constants15match_flag_typeE
LEHE67:
	movl	%eax, %ebx
	leal	-28(%ebp), %eax
	movl	%eax, %ecx
	call	__ZNSt7__cxx1113match_resultsIN9__gnu_cxx17__normal_iteratorIPcNS_12basic_stringIcSt11char_traitsIcESaIcEEEEESaINS_9sub_matchIS9_EEEED1Ev
	movl	%ebx, %eax
	jmp	L356
L355:
	movl	%eax, %ebx
	leal	-28(%ebp), %eax
	movl	%eax, %ecx
	call	__ZNSt7__cxx1113match_resultsIN9__gnu_cxx17__normal_iteratorIPcNS_12basic_stringIcSt11char_traitsIcESaIcEEEEESaINS_9sub_matchIS9_EEEED1Ev
	movl	%ebx, %eax
	movl	%eax, (%esp)
LEHB68:
	call	__Unwind_Resume
LEHE68:
L356:
	movl	-4(%ebp), %ebx
	leave
	.cfi_restore 5
	.cfi_restore 3
	.cfi_def_cfa 4, 4
	ret
	.cfi_endproc
LFE4780:
	.section	.gcc_except_table,"w"
LLSDA4780:
	.byte	0xff
	.byte	0xff
	.byte	0x1
	.uleb128 LLSDACSE4780-LLSDACSB4780
LLSDACSB4780:
	.uleb128 LEHB67-LFB4780
	.uleb128 LEHE67-LEHB67
	.uleb128 L355-LFB4780
	.uleb128 0
	.uleb128 LEHB68-LFB4780
	.uleb128 LEHE68-LEHB68
	.uleb128 0
	.uleb128 0
LLSDACSE4780:
	.section	.text$_ZSt11regex_matchIN9__gnu_cxx17__normal_iteratorIPcNSt7__cxx1112basic_stringIcSt11char_traitsIcESaIcEEEEEcNS3_12regex_traitsIcEEEbT_SC_RKNS3_11basic_regexIT0_T1_EENSt15regex_constants15match_flag_typeE,"x"
	.linkonce discard
	.section	.text$_ZNSaINSt7__cxx119sub_matchIN9__gnu_cxx17__normal_iteratorIPKcNS_12basic_stringIcSt11char_traitsIcESaIcEEEEEEEEC2Ev,"x"
	.linkonce discard
	.align 2
	.globl	__ZNSaINSt7__cxx119sub_matchIN9__gnu_cxx17__normal_iteratorIPKcNS_12basic_stringIcSt11char_traitsIcESaIcEEEEEEEEC2Ev
	.def	__ZNSaINSt7__cxx119sub_matchIN9__gnu_cxx17__normal_iteratorIPKcNS_12basic_stringIcSt11char_traitsIcESaIcEEEEEEEEC2Ev;	.scl	2;	.type	32;	.endef
__ZNSaINSt7__cxx119sub_matchIN9__gnu_cxx17__normal_iteratorIPKcNS_12basic_stringIcSt11char_traitsIcESaIcEEEEEEEEC2Ev:
LFB4782:
	.cfi_startproc
	pushl	%ebp
	.cfi_def_cfa_offset 8
	.cfi_offset 5, -8
	movl	%esp, %ebp
	.cfi_def_cfa_register 5
	subl	$24, %esp
	movl	%ecx, -12(%ebp)
	movl	-12(%ebp), %eax
	movl	%eax, %ecx
	call	__ZN9__gnu_cxx13new_allocatorINSt7__cxx119sub_matchINS_17__normal_iteratorIPKcNS1_12basic_stringIcSt11char_traitsIcESaIcEEEEEEEEC2Ev
	nop
	leave
	.cfi_restore 5
	.cfi_def_cfa 4, 4
	ret
	.cfi_endproc
LFE4782:
	.section	.text$_ZNSaINSt7__cxx119sub_matchIN9__gnu_cxx17__normal_iteratorIPKcNS_12basic_stringIcSt11char_traitsIcESaIcEEEEEEEEC1Ev,"x"
	.linkonce discard
	.align 2
	.globl	__ZNSaINSt7__cxx119sub_matchIN9__gnu_cxx17__normal_iteratorIPKcNS_12basic_stringIcSt11char_traitsIcESaIcEEEEEEEEC1Ev
	.def	__ZNSaINSt7__cxx119sub_matchIN9__gnu_cxx17__normal_iteratorIPKcNS_12basic_stringIcSt11char_traitsIcESaIcEEEEEEEEC1Ev;	.scl	2;	.type	32;	.endef
__ZNSaINSt7__cxx119sub_matchIN9__gnu_cxx17__normal_iteratorIPKcNS_12basic_stringIcSt11char_traitsIcESaIcEEEEEEEEC1Ev:
LFB4783:
	.cfi_startproc
	pushl	%ebp
	.cfi_def_cfa_offset 8
	.cfi_offset 5, -8
	movl	%esp, %ebp
	.cfi_def_cfa_register 5
	subl	$24, %esp
	movl	%ecx, -12(%ebp)
	movl	-12(%ebp), %eax
	movl	%eax, %ecx
	call	__ZN9__gnu_cxx13new_allocatorINSt7__cxx119sub_matchINS_17__normal_iteratorIPKcNS1_12basic_stringIcSt11char_traitsIcESaIcEEEEEEEEC2Ev
	nop
	leave
	.cfi_restore 5
	.cfi_def_cfa 4, 4
	ret
	.cfi_endproc
LFE4783:
	.section	.text$_ZNSaINSt7__cxx119sub_matchIN9__gnu_cxx17__normal_iteratorIPKcNS_12basic_stringIcSt11char_traitsIcESaIcEEEEEEEED2Ev,"x"
	.linkonce discard
	.align 2
	.globl	__ZNSaINSt7__cxx119sub_matchIN9__gnu_cxx17__normal_iteratorIPKcNS_12basic_stringIcSt11char_traitsIcESaIcEEEEEEEED2Ev
	.def	__ZNSaINSt7__cxx119sub_matchIN9__gnu_cxx17__normal_iteratorIPKcNS_12basic_stringIcSt11char_traitsIcESaIcEEEEEEEED2Ev;	.scl	2;	.type	32;	.endef
__ZNSaINSt7__cxx119sub_matchIN9__gnu_cxx17__normal_iteratorIPKcNS_12basic_stringIcSt11char_traitsIcESaIcEEEEEEEED2Ev:
LFB4785:
	.cfi_startproc
	pushl	%ebp
	.cfi_def_cfa_offset 8
	.cfi_offset 5, -8
	movl	%esp, %ebp
	.cfi_def_cfa_register 5
	subl	$24, %esp
	movl	%ecx, -12(%ebp)
	movl	-12(%ebp), %eax
	movl	%eax, %ecx
	call	__ZN9__gnu_cxx13new_allocatorINSt7__cxx119sub_matchINS_17__normal_iteratorIPKcNS1_12basic_stringIcSt11char_traitsIcESaIcEEEEEEEED2Ev
	nop
	leave
	.cfi_restore 5
	.cfi_def_cfa 4, 4
	ret
	.cfi_endproc
LFE4785:
	.section	.text$_ZNSaINSt7__cxx119sub_matchIN9__gnu_cxx17__normal_iteratorIPKcNS_12basic_stringIcSt11char_traitsIcESaIcEEEEEEEED1Ev,"x"
	.linkonce discard
	.align 2
	.globl	__ZNSaINSt7__cxx119sub_matchIN9__gnu_cxx17__normal_iteratorIPKcNS_12basic_stringIcSt11char_traitsIcESaIcEEEEEEEED1Ev
	.def	__ZNSaINSt7__cxx119sub_matchIN9__gnu_cxx17__normal_iteratorIPKcNS_12basic_stringIcSt11char_traitsIcESaIcEEEEEEEED1Ev;	.scl	2;	.type	32;	.endef
__ZNSaINSt7__cxx119sub_matchIN9__gnu_cxx17__normal_iteratorIPKcNS_12basic_stringIcSt11char_traitsIcESaIcEEEEEEEED1Ev:
LFB4786:
	.cfi_startproc
	pushl	%ebp
	.cfi_def_cfa_offset 8
	.cfi_offset 5, -8
	movl	%esp, %ebp
	.cfi_def_cfa_register 5
	subl	$24, %esp
	movl	%ecx, -12(%ebp)
	movl	-12(%ebp), %eax
	movl	%eax, %ecx
	call	__ZN9__gnu_cxx13new_allocatorINSt7__cxx119sub_matchINS_17__normal_iteratorIPKcNS1_12basic_stringIcSt11char_traitsIcESaIcEEEEEEEED2Ev
	nop
	leave
	.cfi_restore 5
	.cfi_def_cfa 4, 4
	ret
	.cfi_endproc
LFE4786:
	.section	.text$_ZN9__gnu_cxx17__normal_iteratorIPKcNSt7__cxx1112basic_stringIcSt11char_traitsIcESaIcEEEEC1Ev,"x"
	.linkonce discard
	.align 2
	.globl	__ZN9__gnu_cxx17__normal_iteratorIPKcNSt7__cxx1112basic_stringIcSt11char_traitsIcESaIcEEEEC1Ev
	.def	__ZN9__gnu_cxx17__normal_iteratorIPKcNSt7__cxx1112basic_stringIcSt11char_traitsIcESaIcEEEEC1Ev;	.scl	2;	.type	32;	.endef
__ZN9__gnu_cxx17__normal_iteratorIPKcNSt7__cxx1112basic_stringIcSt11char_traitsIcESaIcEEEEC1Ev:
LFB4790:
	.cfi_startproc
	pushl	%ebp
	.cfi_def_cfa_offset 8
	.cfi_offset 5, -8
	movl	%esp, %ebp
	.cfi_def_cfa_register 5
	subl	$4, %esp
	movl	%ecx, -4(%ebp)
	movl	-4(%ebp), %eax
	movl	$0, (%eax)
	nop
	leave
	.cfi_restore 5
	.cfi_def_cfa 4, 4
	ret
	.cfi_endproc
LFE4790:
	.section	.text$_ZNSt7__cxx1113match_resultsIN9__gnu_cxx17__normal_iteratorIPKcNS_12basic_stringIcSt11char_traitsIcESaIcEEEEESaINS_9sub_matchISA_EEEEC1ERKSD_,"x"
	.linkonce discard
	.align 2
	.globl	__ZNSt7__cxx1113match_resultsIN9__gnu_cxx17__normal_iteratorIPKcNS_12basic_stringIcSt11char_traitsIcESaIcEEEEESaINS_9sub_matchISA_EEEEC1ERKSD_
	.def	__ZNSt7__cxx1113match_resultsIN9__gnu_cxx17__normal_iteratorIPKcNS_12basic_stringIcSt11char_traitsIcESaIcEEEEESaINS_9sub_matchISA_EEEEC1ERKSD_;	.scl	2;	.type	32;	.endef
__ZNSt7__cxx1113match_resultsIN9__gnu_cxx17__normal_iteratorIPKcNS_12basic_stringIcSt11char_traitsIcESaIcEEEEESaINS_9sub_matchISA_EEEEC1ERKSD_:
LFB4792:
	.cfi_startproc
	pushl	%ebp
	.cfi_def_cfa_offset 8
	.cfi_offset 5, -8
	movl	%esp, %ebp
	.cfi_def_cfa_register 5
	subl	$40, %esp
	movl	%ecx, -12(%ebp)
	movl	-12(%ebp), %eax
	movl	8(%ebp), %edx
	movl	%edx, (%esp)
	movl	%eax, %ecx
	call	__ZNSt6vectorINSt7__cxx119sub_matchIN9__gnu_cxx17__normal_iteratorIPKcNS0_12basic_stringIcSt11char_traitsIcESaIcEEEEEEESaISC_EEC2ERKSD_
	subl	$4, %esp
	movl	-12(%ebp), %eax
	addl	$12, %eax
	movl	%eax, %ecx
	call	__ZN9__gnu_cxx17__normal_iteratorIPKcNSt7__cxx1112basic_stringIcSt11char_traitsIcESaIcEEEEC1Ev
	nop
	leave
	.cfi_restore 5
	.cfi_def_cfa 4, 4
	ret	$4
	.cfi_endproc
LFE4792:
	.section	.text$_ZNSt7__cxx1113match_resultsIN9__gnu_cxx17__normal_iteratorIPKcNS_12basic_stringIcSt11char_traitsIcESaIcEEEEESaINS_9sub_matchISA_EEEED1Ev,"x"
	.linkonce discard
	.align 2
	.globl	__ZNSt7__cxx1113match_resultsIN9__gnu_cxx17__normal_iteratorIPKcNS_12basic_stringIcSt11char_traitsIcESaIcEEEEESaINS_9sub_matchISA_EEEED1Ev
	.def	__ZNSt7__cxx1113match_resultsIN9__gnu_cxx17__normal_iteratorIPKcNS_12basic_stringIcSt11char_traitsIcESaIcEEEEESaINS_9sub_matchISA_EEEED1Ev;	.scl	2;	.type	32;	.endef
__ZNSt7__cxx1113match_resultsIN9__gnu_cxx17__normal_iteratorIPKcNS_12basic_stringIcSt11char_traitsIcESaIcEEEEESaINS_9sub_matchISA_EEEED1Ev:
LFB4795:
	.cfi_startproc
	pushl	%ebp
	.cfi_def_cfa_offset 8
	.cfi_offset 5, -8
	movl	%esp, %ebp
	.cfi_def_cfa_register 5
	subl	$24, %esp
	movl	%ecx, -12(%ebp)
	movl	-12(%ebp), %eax
	movl	%eax, %ecx
	call	__ZNSt6vectorINSt7__cxx119sub_matchIN9__gnu_cxx17__normal_iteratorIPKcNS0_12basic_stringIcSt11char_traitsIcESaIcEEEEEEESaISC_EED2Ev
	nop
	leave
	.cfi_restore 5
	.cfi_def_cfa 4, 4
	ret
	.cfi_endproc
LFE4795:
	.section	.text$_ZSt12regex_searchIN9__gnu_cxx17__normal_iteratorIPKcNSt7__cxx1112basic_stringIcSt11char_traitsIcESaIcEEEEESaINS4_9sub_matchISA_EEEcNS4_12regex_traitsIcEEEbT_SG_RNS4_13match_resultsISG_T0_EERKNS4_11basic_regexIT1_T2_EENSt15regex_constants15match_flag_typeE,"x"
	.linkonce discard
	.globl	__ZSt12regex_searchIN9__gnu_cxx17__normal_iteratorIPKcNSt7__cxx1112basic_stringIcSt11char_traitsIcESaIcEEEEESaINS4_9sub_matchISA_EEEcNS4_12regex_traitsIcEEEbT_SG_RNS4_13match_resultsISG_T0_EERKNS4_11basic_regexIT1_T2_EENSt15regex_constants15match_flag_typeE
	.def	__ZSt12regex_searchIN9__gnu_cxx17__normal_iteratorIPKcNSt7__cxx1112basic_stringIcSt11char_traitsIcESaIcEEEEESaINS4_9sub_matchISA_EEEcNS4_12regex_traitsIcEEEbT_SG_RNS4_13match_resultsISG_T0_EERKNS4_11basic_regexIT1_T2_EENSt15regex_constants15match_flag_typeE;	.scl	2;	.type	32;	.endef
__ZSt12regex_searchIN9__gnu_cxx17__normal_iteratorIPKcNSt7__cxx1112basic_stringIcSt11char_traitsIcESaIcEEEEESaINS4_9sub_matchISA_EEEcNS4_12regex_traitsIcEEEbT_SG_RNS4_13match_resultsISG_T0_EERKNS4_11basic_regexIT1_T2_EENSt15regex_constants15match_flag_typeE:
LFB4801:
	.cfi_startproc
	pushl	%ebp
	.cfi_def_cfa_offset 8
	.cfi_offset 5, -8
	movl	%esp, %ebp
	.cfi_def_cfa_register 5
	subl	$40, %esp
	movl	24(%ebp), %eax
	movl	%eax, 16(%esp)
	movl	20(%ebp), %eax
	movl	%eax, 12(%esp)
	movl	16(%ebp), %eax
	movl	%eax, 8(%esp)
	movl	12(%ebp), %eax
	movl	%eax, 4(%esp)
	movl	8(%ebp), %eax
	movl	%eax, (%esp)
	call	__ZNSt8__detail17__regex_algo_implIN9__gnu_cxx17__normal_iteratorIPKcNSt7__cxx1112basic_stringIcSt11char_traitsIcESaIcEEEEESaINS5_9sub_matchISB_EEEcNS5_12regex_traitsIcEELNS_20_RegexExecutorPolicyE0ELb0EEEbT_SI_RNS5_13match_resultsISI_T0_EERKNS5_11basic_regexIT1_T2_EENSt15regex_constants15match_flag_typeE
	leave
	.cfi_restore 5
	.cfi_def_cfa 4, 4
	ret
	.cfi_endproc
LFE4801:
	.section	.text$_ZNKSt7__cxx1113match_resultsIN9__gnu_cxx17__normal_iteratorIPKcNS_12basic_stringIcSt11char_traitsIcESaIcEEEEESaINS_9sub_matchISA_EEEEixEj,"x"
	.linkonce discard
	.align 2
	.globl	__ZNKSt7__cxx1113match_resultsIN9__gnu_cxx17__normal_iteratorIPKcNS_12basic_stringIcSt11char_traitsIcESaIcEEEEESaINS_9sub_matchISA_EEEEixEj
	.def	__ZNKSt7__cxx1113match_resultsIN9__gnu_cxx17__normal_iteratorIPKcNS_12basic_stringIcSt11char_traitsIcESaIcEEEEESaINS_9sub_matchISA_EEEEixEj;	.scl	2;	.type	32;	.endef
__ZNKSt7__cxx1113match_resultsIN9__gnu_cxx17__normal_iteratorIPKcNS_12basic_stringIcSt11char_traitsIcESaIcEEEEESaINS_9sub_matchISA_EEEEixEj:
LFB4802:
	.cfi_startproc
	pushl	%ebp
	.cfi_def_cfa_offset 8
	.cfi_offset 5, -8
	movl	%esp, %ebp
	.cfi_def_cfa_register 5
	subl	$40, %esp
	movl	%ecx, -12(%ebp)
	movl	-12(%ebp), %eax
	movl	%eax, %ecx
	call	__ZNKSt7__cxx1113match_resultsIN9__gnu_cxx17__normal_iteratorIPKcNS_12basic_stringIcSt11char_traitsIcESaIcEEEEESaINS_9sub_matchISA_EEEE4sizeEv
	cmpl	8(%ebp), %eax
	jbe	L367
	movl	-12(%ebp), %eax
	movl	8(%ebp), %edx
	movl	%edx, (%esp)
	movl	%eax, %ecx
	call	__ZNKSt6vectorINSt7__cxx119sub_matchIN9__gnu_cxx17__normal_iteratorIPKcNS0_12basic_stringIcSt11char_traitsIcESaIcEEEEEEESaISC_EEixEj
	subl	$4, %esp
	jmp	L369
L367:
	movl	-12(%ebp), %eax
	movl	%eax, %ecx
	call	__ZNKSt7__cxx1113match_resultsIN9__gnu_cxx17__normal_iteratorIPKcNS_12basic_stringIcSt11char_traitsIcESaIcEEEEESaINS_9sub_matchISA_EEEE16_M_unmatched_subEv
L369:
	leave
	.cfi_restore 5
	.cfi_def_cfa 4, 4
	ret	$4
	.cfi_endproc
LFE4802:
	.section	.text$_ZNKSt7__cxx119sub_matchIN9__gnu_cxx17__normal_iteratorIPKcNS_12basic_stringIcSt11char_traitsIcESaIcEEEEEEcvS9_Ev,"x"
	.linkonce discard
	.align 2
	.globl	__ZNKSt7__cxx119sub_matchIN9__gnu_cxx17__normal_iteratorIPKcNS_12basic_stringIcSt11char_traitsIcESaIcEEEEEEcvS9_Ev
	.def	__ZNKSt7__cxx119sub_matchIN9__gnu_cxx17__normal_iteratorIPKcNS_12basic_stringIcSt11char_traitsIcESaIcEEEEEEcvS9_Ev;	.scl	2;	.type	32;	.endef
__ZNKSt7__cxx119sub_matchIN9__gnu_cxx17__normal_iteratorIPKcNS_12basic_stringIcSt11char_traitsIcESaIcEEEEEEcvS9_Ev:
LFB4803:
	.cfi_startproc
	.cfi_personality 0,___gxx_personality_v0
	.cfi_lsda 0,LLSDA4803
	pushl	%ebp
	.cfi_def_cfa_offset 8
	.cfi_offset 5, -8
	movl	%esp, %ebp
	.cfi_def_cfa_register 5
	pushl	%esi
	pushl	%ebx
	subl	$48, %esp
	.cfi_offset 6, -12
	.cfi_offset 3, -16
	movl	%ecx, -28(%ebp)
	movl	8(%ebp), %eax
	movzbl	8(%eax), %eax
	movl	$0, %ebx
	testb	%al, %al
	je	L371
	leal	-9(%ebp), %eax
	movl	%eax, %ecx
	call	__ZNSaIcEC1Ev
	movl	$1, %ebx
	movl	-28(%ebp), %eax
	leal	-9(%ebp), %edx
	movl	%edx, 8(%esp)
	movl	8(%ebp), %edx
	movl	4(%edx), %edx
	movl	%edx, 4(%esp)
	movl	8(%ebp), %edx
	movl	(%edx), %edx
	movl	%edx, (%esp)
	movl	%eax, %ecx
LEHB69:
	call	__ZNSt7__cxx1112basic_stringIcSt11char_traitsIcESaIcEEC1IN9__gnu_cxx17__normal_iteratorIPKcS4_EEvEET_SB_RKS3_
LEHE69:
	subl	$12, %esp
	jmp	L372
L371:
	movl	-28(%ebp), %eax
	movl	%eax, %ecx
	call	__ZNSt7__cxx1112basic_stringIcSt11char_traitsIcESaIcEEC1Ev
L372:
	testb	%bl, %bl
	je	L370
	leal	-9(%ebp), %eax
	movl	%eax, %ecx
	call	__ZNSaIcED1Ev
	jmp	L370
L377:
	movl	%eax, %esi
	testb	%bl, %bl
	je	L376
	leal	-9(%ebp), %eax
	movl	%eax, %ecx
	call	__ZNSaIcED1Ev
L376:
	movl	%esi, %eax
	movl	%eax, (%esp)
LEHB70:
	call	__Unwind_Resume
LEHE70:
L370:
	movl	-28(%ebp), %eax
	leal	-8(%ebp), %esp
	popl	%ebx
	.cfi_restore 3
	popl	%esi
	.cfi_restore 6
	popl	%ebp
	.cfi_restore 5
	.cfi_def_cfa 4, 4
	ret	$4
	.cfi_endproc
LFE4803:
	.section	.gcc_except_table,"w"
LLSDA4803:
	.byte	0xff
	.byte	0xff
	.byte	0x1
	.uleb128 LLSDACSE4803-LLSDACSB4803
LLSDACSB4803:
	.uleb128 LEHB69-LFB4803
	.uleb128 LEHE69-LEHB69
	.uleb128 L377-LFB4803
	.uleb128 0
	.uleb128 LEHB70-LFB4803
	.uleb128 LEHE70-LEHB70
	.uleb128 0
	.uleb128 0
LLSDACSE4803:
	.section	.text$_ZNKSt7__cxx119sub_matchIN9__gnu_cxx17__normal_iteratorIPKcNS_12basic_stringIcSt11char_traitsIcESaIcEEEEEEcvS9_Ev,"x"
	.linkonce discard
	.section	.text$_ZNSt6vectorINSt7__cxx1112basic_stringIcSt11char_traitsIcESaIcEEESaIS5_EE6insertEN9__gnu_cxx17__normal_iteratorIPKS5_S7_EEOS5_,"x"
	.linkonce discard
	.align 2
	.globl	__ZNSt6vectorINSt7__cxx1112basic_stringIcSt11char_traitsIcESaIcEEESaIS5_EE6insertEN9__gnu_cxx17__normal_iteratorIPKS5_S7_EEOS5_
	.def	__ZNSt6vectorINSt7__cxx1112basic_stringIcSt11char_traitsIcESaIcEEESaIS5_EE6insertEN9__gnu_cxx17__normal_iteratorIPKS5_S7_EEOS5_;	.scl	2;	.type	32;	.endef
__ZNSt6vectorINSt7__cxx1112basic_stringIcSt11char_traitsIcESaIcEEESaIS5_EE6insertEN9__gnu_cxx17__normal_iteratorIPKS5_S7_EEOS5_:
LFB4804:
	.cfi_startproc
	pushl	%ebp
	.cfi_def_cfa_offset 8
	.cfi_offset 5, -8
	movl	%esp, %ebp
	.cfi_def_cfa_register 5
	subl	$40, %esp
	movl	%ecx, -12(%ebp)
	movl	12(%ebp), %eax
	movl	%eax, (%esp)
	call	__ZSt4moveIRNSt7__cxx1112basic_stringIcSt11char_traitsIcESaIcEEEEONSt16remove_referenceIT_E4typeEOS8_
	movl	%eax, %edx
	movl	-12(%ebp), %eax
	movl	%edx, 4(%esp)
	movl	8(%ebp), %edx
	movl	%edx, (%esp)
	movl	%eax, %ecx
	call	__ZNSt6vectorINSt7__cxx1112basic_stringIcSt11char_traitsIcESaIcEEESaIS5_EE7emplaceIJS5_EEEN9__gnu_cxx17__normal_iteratorIPS5_S7_EENSA_IPKS5_S7_EEDpOT_
	subl	$8, %esp
	leave
	.cfi_restore 5
	.cfi_def_cfa 4, 4
	ret	$8
	.cfi_endproc
LFE4804:
	.section	.text$_ZSteqIcEN9__gnu_cxx11__enable_ifIXsrSt9__is_charIT_E7__valueEbE6__typeERKNSt7__cxx1112basic_stringIS3_St11char_traitsIS3_ESaIS3_EEESE_,"x"
	.linkonce discard
	.globl	__ZSteqIcEN9__gnu_cxx11__enable_ifIXsrSt9__is_charIT_E7__valueEbE6__typeERKNSt7__cxx1112basic_stringIS3_St11char_traitsIS3_ESaIS3_EEESE_
	.def	__ZSteqIcEN9__gnu_cxx11__enable_ifIXsrSt9__is_charIT_E7__valueEbE6__typeERKNSt7__cxx1112basic_stringIS3_St11char_traitsIS3_ESaIS3_EEESE_;	.scl	2;	.type	32;	.endef
__ZSteqIcEN9__gnu_cxx11__enable_ifIXsrSt9__is_charIT_E7__valueEbE6__typeERKNSt7__cxx1112basic_stringIS3_St11char_traitsIS3_ESaIS3_EEESE_:
LFB4805:
	.cfi_startproc
	pushl	%ebp
	.cfi_def_cfa_offset 8
	.cfi_offset 5, -8
	movl	%esp, %ebp
	.cfi_def_cfa_register 5
	pushl	%esi
	pushl	%ebx
	subl	$16, %esp
	.cfi_offset 6, -12
	.cfi_offset 3, -16
	movl	8(%ebp), %ecx
	call	__ZNKSt7__cxx1112basic_stringIcSt11char_traitsIcESaIcEE4sizeEv
	movl	%eax, %ebx
	movl	12(%ebp), %eax
	movl	%eax, %ecx
	call	__ZNKSt7__cxx1112basic_stringIcSt11char_traitsIcESaIcEE4sizeEv
	cmpl	%eax, %ebx
	jne	L381
	movl	8(%ebp), %ecx
	call	__ZNKSt7__cxx1112basic_stringIcSt11char_traitsIcESaIcEE4sizeEv
	movl	%eax, %esi
	movl	12(%ebp), %eax
	movl	%eax, %ecx
	call	__ZNKSt7__cxx1112basic_stringIcSt11char_traitsIcESaIcEE4dataEv
	movl	%eax, %ebx
	movl	8(%ebp), %ecx
	call	__ZNKSt7__cxx1112basic_stringIcSt11char_traitsIcESaIcEE4dataEv
	movl	%esi, 8(%esp)
	movl	%ebx, 4(%esp)
	movl	%eax, (%esp)
	call	__ZNSt11char_traitsIcE7compareEPKcS2_j
	testl	%eax, %eax
	jne	L381
	movl	$1, %eax
	jmp	L382
L381:
	movl	$0, %eax
L382:
	addl	$16, %esp
	popl	%ebx
	.cfi_restore 3
	popl	%esi
	.cfi_restore 6
	popl	%ebp
	.cfi_restore 5
	.cfi_def_cfa 4, 4
	ret
	.cfi_endproc
LFE4805:
	.section	.text$_ZStplIcSt11char_traitsIcESaIcEENSt7__cxx1112basic_stringIT_T0_T1_EERKS8_OS8_,"x"
	.linkonce discard
	.globl	__ZStplIcSt11char_traitsIcESaIcEENSt7__cxx1112basic_stringIT_T0_T1_EERKS8_OS8_
	.def	__ZStplIcSt11char_traitsIcESaIcEENSt7__cxx1112basic_stringIT_T0_T1_EERKS8_OS8_;	.scl	2;	.type	32;	.endef
__ZStplIcSt11char_traitsIcESaIcEENSt7__cxx1112basic_stringIT_T0_T1_EERKS8_OS8_:
LFB4806:
	.cfi_startproc
	pushl	%ebp
	.cfi_def_cfa_offset 8
	.cfi_offset 5, -8
	movl	%esp, %ebp
	.cfi_def_cfa_register 5
	subl	$24, %esp
	movl	16(%ebp), %eax
	movl	12(%ebp), %edx
	movl	%edx, 4(%esp)
	movl	$0, (%esp)
	movl	%eax, %ecx
	call	__ZNSt7__cxx1112basic_stringIcSt11char_traitsIcESaIcEE6insertEjRKS4_
	subl	$8, %esp
	movl	%eax, (%esp)
	call	__ZSt4moveIRNSt7__cxx1112basic_stringIcSt11char_traitsIcESaIcEEEEONSt16remove_referenceIT_E4typeEOS8_
	movl	%eax, (%esp)
	movl	8(%ebp), %ecx
	call	__ZNSt7__cxx1112basic_stringIcSt11char_traitsIcESaIcEEC1EOS4_
	subl	$4, %esp
	movl	8(%ebp), %eax
	leave
	.cfi_restore 5
	.cfi_def_cfa 4, 4
	ret
	.cfi_endproc
LFE4806:
	.section	.text$_ZNSt7__cxx1112basic_stringIcSt11char_traitsIcESaIcEEC1IPcvEET_S7_RKS3_,"x"
	.linkonce discard
	.align 2
	.globl	__ZNSt7__cxx1112basic_stringIcSt11char_traitsIcESaIcEEC1IPcvEET_S7_RKS3_
	.def	__ZNSt7__cxx1112basic_stringIcSt11char_traitsIcESaIcEEC1IPcvEET_S7_RKS3_;	.scl	2;	.type	32;	.endef
__ZNSt7__cxx1112basic_stringIcSt11char_traitsIcESaIcEEC1IPcvEET_S7_RKS3_:
LFB4818:
	.cfi_startproc
	.cfi_personality 0,___gxx_personality_v0
	.cfi_lsda 0,LLSDA4818
	pushl	%ebp
	.cfi_def_cfa_offset 8
	.cfi_offset 5, -8
	movl	%esp, %ebp
	.cfi_def_cfa_register 5
	pushl	%ebx
	subl	$36, %esp
	.cfi_offset 3, -12
	movl	%ecx, -12(%ebp)
	movl	-12(%ebp), %eax
	movl	%eax, %ecx
LEHB71:
	call	__ZNSt7__cxx1112basic_stringIcSt11char_traitsIcESaIcEE13_M_local_dataEv
	movl	%eax, %ecx
	movl	-12(%ebp), %eax
	movl	16(%ebp), %edx
	movl	%edx, 4(%esp)
	movl	%ecx, (%esp)
	movl	%eax, %ecx
	call	__ZNSt7__cxx1112basic_stringIcSt11char_traitsIcESaIcEE12_Alloc_hiderC1EPcRKS3_
LEHE71:
	subl	$8, %esp
	movl	-12(%ebp), %eax
	movl	12(%ebp), %edx
	movl	%edx, 4(%esp)
	movl	8(%ebp), %edx
	movl	%edx, (%esp)
	movl	%eax, %ecx
LEHB72:
	call	__ZNSt7__cxx1112basic_stringIcSt11char_traitsIcESaIcEE12_M_constructIPcEEvT_S7_
LEHE72:
	subl	$8, %esp
	jmp	L389
L388:
	movl	%eax, %ebx
	movl	-12(%ebp), %eax
	movl	%eax, %ecx
	call	__ZNSt7__cxx1112basic_stringIcSt11char_traitsIcESaIcEE12_Alloc_hiderD1Ev
	movl	%ebx, %eax
	movl	%eax, (%esp)
LEHB73:
	call	__Unwind_Resume
LEHE73:
L389:
	movl	-4(%ebp), %ebx
	leave
	.cfi_restore 5
	.cfi_restore 3
	.cfi_def_cfa 4, 4
	ret	$12
	.cfi_endproc
LFE4818:
	.section	.gcc_except_table,"w"
LLSDA4818:
	.byte	0xff
	.byte	0xff
	.byte	0x1
	.uleb128 LLSDACSE4818-LLSDACSB4818
LLSDACSB4818:
	.uleb128 LEHB71-LFB4818
	.uleb128 LEHE71-LEHB71
	.uleb128 0
	.uleb128 0
	.uleb128 LEHB72-LFB4818
	.uleb128 LEHE72-LEHB72
	.uleb128 L388-LFB4818
	.uleb128 0
	.uleb128 LEHB73-LFB4818
	.uleb128 LEHE73-LEHB73
	.uleb128 0
	.uleb128 0
LLSDACSE4818:
	.section	.text$_ZNSt7__cxx1112basic_stringIcSt11char_traitsIcESaIcEEC1IPcvEET_S7_RKS3_,"x"
	.linkonce discard
	.section	.text$_ZNSt12_Vector_baseIjSaIjEE12_Vector_implD1Ev,"x"
	.linkonce discard
	.align 2
	.globl	__ZNSt12_Vector_baseIjSaIjEE12_Vector_implD1Ev
	.def	__ZNSt12_Vector_baseIjSaIjEE12_Vector_implD1Ev;	.scl	2;	.type	32;	.endef
__ZNSt12_Vector_baseIjSaIjEE12_Vector_implD1Ev:
LFB4908:
	.cfi_startproc
	pushl	%ebp
	.cfi_def_cfa_offset 8
	.cfi_offset 5, -8
	movl	%esp, %ebp
	.cfi_def_cfa_register 5
	subl	$24, %esp
	movl	%ecx, -12(%ebp)
	movl	-12(%ebp), %eax
	movl	%eax, %ecx
	call	__ZNSaIjED2Ev
	nop
	leave
	.cfi_restore 5
	.cfi_def_cfa 4, 4
	ret
	.cfi_endproc
LFE4908:
	.section	.text$_ZNSt12_Vector_baseIjSaIjEEC2Ev,"x"
	.linkonce discard
	.align 2
	.globl	__ZNSt12_Vector_baseIjSaIjEEC2Ev
	.def	__ZNSt12_Vector_baseIjSaIjEEC2Ev;	.scl	2;	.type	32;	.endef
__ZNSt12_Vector_baseIjSaIjEEC2Ev:
LFB4909:
	.cfi_startproc
	pushl	%ebp
	.cfi_def_cfa_offset 8
	.cfi_offset 5, -8
	movl	%esp, %ebp
	.cfi_def_cfa_register 5
	subl	$24, %esp
	movl	%ecx, -12(%ebp)
	movl	-12(%ebp), %eax
	movl	%eax, %ecx
	call	__ZNSt12_Vector_baseIjSaIjEE12_Vector_implC1Ev
	nop
	leave
	.cfi_restore 5
	.cfi_def_cfa 4, 4
	ret
	.cfi_endproc
LFE4909:
	.section	.text$_ZNSt12_Vector_baseIjSaIjEED2Ev,"x"
	.linkonce discard
	.align 2
	.globl	__ZNSt12_Vector_baseIjSaIjEED2Ev
	.def	__ZNSt12_Vector_baseIjSaIjEED2Ev;	.scl	2;	.type	32;	.endef
__ZNSt12_Vector_baseIjSaIjEED2Ev:
LFB4912:
	.cfi_startproc
	.cfi_personality 0,___gxx_personality_v0
	.cfi_lsda 0,LLSDA4912
	pushl	%ebp
	.cfi_def_cfa_offset 8
	.cfi_offset 5, -8
	movl	%esp, %ebp
	.cfi_def_cfa_register 5
	subl	$40, %esp
	movl	%ecx, -12(%ebp)
	movl	-12(%ebp), %eax
	movl	8(%eax), %eax
	movl	%eax, %edx
	movl	-12(%ebp), %eax
	movl	(%eax), %eax
	subl	%eax, %edx
	movl	%edx, %eax
	sarl	$2, %eax
	movl	%eax, %ecx
	movl	-12(%ebp), %eax
	movl	(%eax), %edx
	movl	-12(%ebp), %eax
	movl	%ecx, 4(%esp)
	movl	%edx, (%esp)
	movl	%eax, %ecx
	call	__ZNSt12_Vector_baseIjSaIjEE13_M_deallocateEPjj
	subl	$8, %esp
	movl	-12(%ebp), %eax
	movl	%eax, %ecx
	call	__ZNSt12_Vector_baseIjSaIjEE12_Vector_implD1Ev
	nop
	leave
	.cfi_restore 5
	.cfi_def_cfa 4, 4
	ret
	.cfi_endproc
LFE4912:
	.section	.gcc_except_table,"w"
LLSDA4912:
	.byte	0xff
	.byte	0xff
	.byte	0x1
	.uleb128 LLSDACSE4912-LLSDACSB4912
LLSDACSB4912:
LLSDACSE4912:
	.section	.text$_ZNSt12_Vector_baseIjSaIjEED2Ev,"x"
	.linkonce discard
	.section	.text$_ZNSt12_Vector_baseIjSaIjEE19_M_get_Tp_allocatorEv,"x"
	.linkonce discard
	.align 2
	.globl	__ZNSt12_Vector_baseIjSaIjEE19_M_get_Tp_allocatorEv
	.def	__ZNSt12_Vector_baseIjSaIjEE19_M_get_Tp_allocatorEv;	.scl	2;	.type	32;	.endef
__ZNSt12_Vector_baseIjSaIjEE19_M_get_Tp_allocatorEv:
LFB4914:
	.cfi_startproc
	pushl	%ebp
	.cfi_def_cfa_offset 8
	.cfi_offset 5, -8
	movl	%esp, %ebp
	.cfi_def_cfa_register 5
	subl	$4, %esp
	movl	%ecx, -4(%ebp)
	movl	-4(%ebp), %eax
	leave
	.cfi_restore 5
	.cfi_def_cfa 4, 4
	ret
	.cfi_endproc
LFE4914:
	.section	.text$_ZSt8_DestroyIPjjEvT_S1_RSaIT0_E,"x"
	.linkonce discard
	.globl	__ZSt8_DestroyIPjjEvT_S1_RSaIT0_E
	.def	__ZSt8_DestroyIPjjEvT_S1_RSaIT0_E;	.scl	2;	.type	32;	.endef
__ZSt8_DestroyIPjjEvT_S1_RSaIT0_E:
LFB4915:
	.cfi_startproc
	pushl	%ebp
	.cfi_def_cfa_offset 8
	.cfi_offset 5, -8
	movl	%esp, %ebp
	.cfi_def_cfa_register 5
	subl	$24, %esp
	movl	12(%ebp), %eax
	movl	%eax, 4(%esp)
	movl	8(%ebp), %eax
	movl	%eax, (%esp)
	call	__ZSt8_DestroyIPjEvT_S1_
	nop
	leave
	.cfi_restore 5
	.cfi_def_cfa 4, 4
	ret
	.cfi_endproc
LFE4915:
	.section	.text$_ZSt4moveIRPKcEONSt16remove_referenceIT_E4typeEOS4_,"x"
	.linkonce discard
	.globl	__ZSt4moveIRPKcEONSt16remove_referenceIT_E4typeEOS4_
	.def	__ZSt4moveIRPKcEONSt16remove_referenceIT_E4typeEOS4_;	.scl	2;	.type	32;	.endef
__ZSt4moveIRPKcEONSt16remove_referenceIT_E4typeEOS4_:
LFB4941:
	.cfi_startproc
	pushl	%ebp
	.cfi_def_cfa_offset 8
	.cfi_offset 5, -8
	movl	%esp, %ebp
	.cfi_def_cfa_register 5
	movl	8(%ebp), %eax
	popl	%ebp
	.cfi_restore 5
	.cfi_def_cfa 4, 4
	ret
	.cfi_endproc
LFE4941:
	.section	.text$_ZNSt7__cxx1111basic_regexIcNS_12regex_traitsIcEEEC1IPKcEET_S7_NSt15regex_constants18syntax_option_typeE,"x"
	.linkonce discard
	.align 2
	.globl	__ZNSt7__cxx1111basic_regexIcNS_12regex_traitsIcEEEC1IPKcEET_S7_NSt15regex_constants18syntax_option_typeE
	.def	__ZNSt7__cxx1111basic_regexIcNS_12regex_traitsIcEEEC1IPKcEET_S7_NSt15regex_constants18syntax_option_typeE;	.scl	2;	.type	32;	.endef
__ZNSt7__cxx1111basic_regexIcNS_12regex_traitsIcEEEC1IPKcEET_S7_NSt15regex_constants18syntax_option_typeE:
LFB4943:
	.cfi_startproc
	.cfi_personality 0,___gxx_personality_v0
	.cfi_lsda 0,LLSDA4943
	pushl	%ebp
	.cfi_def_cfa_offset 8
	.cfi_offset 5, -8
	movl	%esp, %ebp
	.cfi_def_cfa_register 5
	pushl	%ebx
	subl	$52, %esp
	.cfi_offset 3, -12
	movl	%ecx, -28(%ebp)
	leal	-12(%ebp), %eax
	movl	%eax, %ecx
	call	__ZNSt6localeC1Ev
	leal	12(%ebp), %eax
	movl	%eax, (%esp)
	call	__ZSt4moveIRPKcEONSt16remove_referenceIT_E4typeEOS4_
	movl	(%eax), %ebx
	leal	8(%ebp), %eax
	movl	%eax, (%esp)
	call	__ZSt4moveIRPKcEONSt16remove_referenceIT_E4typeEOS4_
	movl	(%eax), %edx
	movl	-28(%ebp), %eax
	movl	16(%ebp), %ecx
	movl	%ecx, 12(%esp)
	leal	-12(%ebp), %ecx
	movl	%ecx, 8(%esp)
	movl	%ebx, 4(%esp)
	movl	%edx, (%esp)
	movl	%eax, %ecx
LEHB74:
	call	__ZNSt7__cxx1111basic_regexIcNS_12regex_traitsIcEEEC1IPKcEET_S7_St6localeNSt15regex_constants18syntax_option_typeE
LEHE74:
	subl	$16, %esp
	leal	-12(%ebp), %eax
	movl	%eax, %ecx
	call	__ZNSt6localeD1Ev
	jmp	L401
L400:
	movl	%eax, %ebx
	leal	-12(%ebp), %eax
	movl	%eax, %ecx
	call	__ZNSt6localeD1Ev
	movl	%ebx, %eax
	movl	%eax, (%esp)
LEHB75:
	call	__Unwind_Resume
LEHE75:
L401:
	movl	-4(%ebp), %ebx
	leave
	.cfi_restore 5
	.cfi_restore 3
	.cfi_def_cfa 4, 4
	ret	$12
	.cfi_endproc
LFE4943:
	.section	.gcc_except_table,"w"
LLSDA4943:
	.byte	0xff
	.byte	0xff
	.byte	0x1
	.uleb128 LLSDACSE4943-LLSDACSB4943
LLSDACSB4943:
	.uleb128 LEHB74-LFB4943
	.uleb128 LEHE74-LEHB74
	.uleb128 L400-LFB4943
	.uleb128 0
	.uleb128 LEHB75-LFB4943
	.uleb128 LEHE75-LEHB75
	.uleb128 0
	.uleb128 0
LLSDACSE4943:
	.section	.text$_ZNSt7__cxx1111basic_regexIcNS_12regex_traitsIcEEEC1IPKcEET_S7_NSt15regex_constants18syntax_option_typeE,"x"
	.linkonce discard
	.section	.text$_ZNSt14__shared_countILN9__gnu_cxx12_Lock_policyE2EED1Ev,"x"
	.linkonce discard
	.align 2
	.globl	__ZNSt14__shared_countILN9__gnu_cxx12_Lock_policyE2EED1Ev
	.def	__ZNSt14__shared_countILN9__gnu_cxx12_Lock_policyE2EED1Ev;	.scl	2;	.type	32;	.endef
__ZNSt14__shared_countILN9__gnu_cxx12_Lock_policyE2EED1Ev:
LFB4946:
	.cfi_startproc
	pushl	%ebp
	.cfi_def_cfa_offset 8
	.cfi_offset 5, -8
	movl	%esp, %ebp
	.cfi_def_cfa_register 5
	subl	$24, %esp
	movl	%ecx, -12(%ebp)
	movl	-12(%ebp), %eax
	movl	(%eax), %eax
	testl	%eax, %eax
	je	L404
	movl	-12(%ebp), %eax
	movl	(%eax), %eax
	movl	%eax, %ecx
	call	__ZNSt16_Sp_counted_baseILN9__gnu_cxx12_Lock_policyE2EE10_M_releaseEv
L404:
	nop
	leave
	.cfi_restore 5
	.cfi_def_cfa 4, 4
	ret
	.cfi_endproc
LFE4946:
	.section	.text$_ZNSt8iteratorISt19output_iterator_tagvvvvEC2Ev,"x"
	.linkonce discard
	.align 2
	.globl	__ZNSt8iteratorISt19output_iterator_tagvvvvEC2Ev
	.def	__ZNSt8iteratorISt19output_iterator_tagvvvvEC2Ev;	.scl	2;	.type	32;	.endef
__ZNSt8iteratorISt19output_iterator_tagvvvvEC2Ev:
LFB4949:
	.cfi_startproc
	pushl	%ebp
	.cfi_def_cfa_offset 8
	.cfi_offset 5, -8
	movl	%esp, %ebp
	.cfi_def_cfa_register 5
	subl	$4, %esp
	movl	%ecx, -4(%ebp)
	nop
	leave
	.cfi_restore 5
	.cfi_def_cfa 4, 4
	ret
	.cfi_endproc
LFE4949:
	.section	.text$_ZNSt20back_insert_iteratorINSt7__cxx1112basic_stringIcSt11char_traitsIcESaIcEEEEC1ERS5_,"x"
	.linkonce discard
	.align 2
	.globl	__ZNSt20back_insert_iteratorINSt7__cxx1112basic_stringIcSt11char_traitsIcESaIcEEEEC1ERS5_
	.def	__ZNSt20back_insert_iteratorINSt7__cxx1112basic_stringIcSt11char_traitsIcESaIcEEEEC1ERS5_;	.scl	2;	.type	32;	.endef
__ZNSt20back_insert_iteratorINSt7__cxx1112basic_stringIcSt11char_traitsIcESaIcEEEEC1ERS5_:
LFB4952:
	.cfi_startproc
	pushl	%ebp
	.cfi_def_cfa_offset 8
	.cfi_offset 5, -8
	movl	%esp, %ebp
	.cfi_def_cfa_register 5
	subl	$40, %esp
	movl	%ecx, -12(%ebp)
	movl	-12(%ebp), %eax
	movl	%eax, %ecx
	call	__ZNSt8iteratorISt19output_iterator_tagvvvvEC2Ev
	movl	8(%ebp), %eax
	movl	%eax, (%esp)
	call	__ZSt11__addressofINSt7__cxx1112basic_stringIcSt11char_traitsIcESaIcEEEEPT_RS6_
	movl	%eax, %edx
	movl	-12(%ebp), %eax
	movl	%edx, (%eax)
	nop
	leave
	.cfi_restore 5
	.cfi_def_cfa 4, 4
	ret	$4
	.cfi_endproc
LFE4952:
	.section	.text$_ZNSt7__cxx1113match_resultsIN9__gnu_cxx17__normal_iteratorIPcNS_12basic_stringIcSt11char_traitsIcESaIcEEEEESaINS_9sub_matchIS9_EEEEaSERKSD_,"x"
	.linkonce discard
	.align 2
	.globl	__ZNSt7__cxx1113match_resultsIN9__gnu_cxx17__normal_iteratorIPcNS_12basic_stringIcSt11char_traitsIcESaIcEEEEESaINS_9sub_matchIS9_EEEEaSERKSD_
	.def	__ZNSt7__cxx1113match_resultsIN9__gnu_cxx17__normal_iteratorIPcNS_12basic_stringIcSt11char_traitsIcESaIcEEEEESaINS_9sub_matchIS9_EEEEaSERKSD_;	.scl	2;	.type	32;	.endef
__ZNSt7__cxx1113match_resultsIN9__gnu_cxx17__normal_iteratorIPcNS_12basic_stringIcSt11char_traitsIcESaIcEEEEESaINS_9sub_matchIS9_EEEEaSERKSD_:
LFB4958:
	.cfi_startproc
	pushl	%ebp
	.cfi_def_cfa_offset 8
	.cfi_offset 5, -8
	movl	%esp, %ebp
	.cfi_def_cfa_register 5
	subl	$40, %esp
	movl	%ecx, -12(%ebp)
	movl	8(%ebp), %edx
	movl	-12(%ebp), %eax
	movl	%edx, (%esp)
	movl	%eax, %ecx
	call	__ZNSt6vectorINSt7__cxx119sub_matchIN9__gnu_cxx17__normal_iteratorIPcNS0_12basic_stringIcSt11char_traitsIcESaIcEEEEEEESaISB_EEaSERKSD_
	subl	$4, %esp
	movl	-12(%ebp), %eax
	movl	8(%ebp), %edx
	movl	12(%edx), %edx
	movl	%edx, 12(%eax)
	movl	-12(%ebp), %eax
	leave
	.cfi_restore 5
	.cfi_def_cfa 4, 4
	ret	$4
	.cfi_endproc
LFE4958:
	.section	.text$_ZNSt7__cxx1114regex_iteratorIN9__gnu_cxx17__normal_iteratorIPcNS_12basic_stringIcSt11char_traitsIcESaIcEEEEEcNS_12regex_traitsIcEEEaSERKSC_,"x"
	.linkonce discard
	.align 2
	.globl	__ZNSt7__cxx1114regex_iteratorIN9__gnu_cxx17__normal_iteratorIPcNS_12basic_stringIcSt11char_traitsIcESaIcEEEEEcNS_12regex_traitsIcEEEaSERKSC_
	.def	__ZNSt7__cxx1114regex_iteratorIN9__gnu_cxx17__normal_iteratorIPcNS_12basic_stringIcSt11char_traitsIcESaIcEEEEEcNS_12regex_traitsIcEEEaSERKSC_;	.scl	2;	.type	32;	.endef
__ZNSt7__cxx1114regex_iteratorIN9__gnu_cxx17__normal_iteratorIPcNS_12basic_stringIcSt11char_traitsIcESaIcEEEEEcNS_12regex_traitsIcEEEaSERKSC_:
LFB4957:
	.cfi_startproc
	pushl	%ebp
	.cfi_def_cfa_offset 8
	.cfi_offset 5, -8
	movl	%esp, %ebp
	.cfi_def_cfa_register 5
	subl	$40, %esp
	movl	%ecx, -12(%ebp)
	movl	-12(%ebp), %eax
	movl	8(%ebp), %edx
	movl	(%edx), %edx
	movl	%edx, (%eax)
	movl	-12(%ebp), %eax
	movl	8(%ebp), %edx
	movl	4(%edx), %edx
	movl	%edx, 4(%eax)
	movl	8(%ebp), %eax
	movl	8(%eax), %edx
	movl	-12(%ebp), %eax
	movl	%edx, 8(%eax)
	movl	8(%ebp), %eax
	movl	12(%eax), %edx
	movl	-12(%ebp), %eax
	movl	%edx, 12(%eax)
	movl	8(%ebp), %eax
	leal	16(%eax), %edx
	movl	-12(%ebp), %eax
	addl	$16, %eax
	movl	%edx, (%esp)
	movl	%eax, %ecx
	call	__ZNSt7__cxx1113match_resultsIN9__gnu_cxx17__normal_iteratorIPcNS_12basic_stringIcSt11char_traitsIcESaIcEEEEESaINS_9sub_matchIS9_EEEEaSERKSD_
	subl	$4, %esp
	movl	-12(%ebp), %eax
	leave
	.cfi_restore 5
	.cfi_def_cfa 4, 4
	ret	$4
	.cfi_endproc
LFE4957:
	.section	.text$_ZNSt7__cxx1114regex_iteratorIN9__gnu_cxx17__normal_iteratorIPcNS_12basic_stringIcSt11char_traitsIcESaIcEEEEEcNS_12regex_traitsIcEEEC1ES9_S9_RKNS_11basic_regexIcSB_EENSt15regex_constants15match_flag_typeE,"x"
	.linkonce discard
	.align 2
	.globl	__ZNSt7__cxx1114regex_iteratorIN9__gnu_cxx17__normal_iteratorIPcNS_12basic_stringIcSt11char_traitsIcESaIcEEEEEcNS_12regex_traitsIcEEEC1ES9_S9_RKNS_11basic_regexIcSB_EENSt15regex_constants15match_flag_typeE
	.def	__ZNSt7__cxx1114regex_iteratorIN9__gnu_cxx17__normal_iteratorIPcNS_12basic_stringIcSt11char_traitsIcESaIcEEEEEcNS_12regex_traitsIcEEEC1ES9_S9_RKNS_11basic_regexIcSB_EENSt15regex_constants15match_flag_typeE;	.scl	2;	.type	32;	.endef
__ZNSt7__cxx1114regex_iteratorIN9__gnu_cxx17__normal_iteratorIPcNS_12basic_stringIcSt11char_traitsIcESaIcEEEEEcNS_12regex_traitsIcEEEC1ES9_S9_RKNS_11basic_regexIcSB_EENSt15regex_constants15match_flag_typeE:
LFB4960:
	.cfi_startproc
	.cfi_personality 0,___gxx_personality_v0
	.cfi_lsda 0,LLSDA4960
	pushl	%ebp
	.cfi_def_cfa_offset 8
	.cfi_offset 5, -8
	movl	%esp, %ebp
	.cfi_def_cfa_register 5
	pushl	%ebx
	subl	$100, %esp
	.cfi_offset 3, -12
	movl	%ecx, -60(%ebp)
	movl	-60(%ebp), %eax
	movl	8(%ebp), %edx
	movl	%edx, (%eax)
	movl	-60(%ebp), %eax
	movl	12(%ebp), %edx
	movl	%edx, 4(%eax)
	movl	-60(%ebp), %eax
	movl	16(%ebp), %edx
	movl	%edx, 8(%eax)
	movl	-60(%ebp), %eax
	movl	20(%ebp), %edx
	movl	%edx, 12(%eax)
	leal	-41(%ebp), %eax
	movl	%eax, %ecx
	call	__ZNSaINSt7__cxx119sub_matchIN9__gnu_cxx17__normal_iteratorIPcNS_12basic_stringIcSt11char_traitsIcESaIcEEEEEEEEC1Ev
	movl	-60(%ebp), %eax
	leal	16(%eax), %edx
	leal	-41(%ebp), %eax
	movl	%eax, (%esp)
	movl	%edx, %ecx
	call	__ZNSt7__cxx1113match_resultsIN9__gnu_cxx17__normal_iteratorIPcNS_12basic_stringIcSt11char_traitsIcESaIcEEEEESaINS_9sub_matchIS9_EEEEC1ERKSC_
	subl	$4, %esp
	leal	-41(%ebp), %eax
	movl	%eax, %ecx
	call	__ZNSaINSt7__cxx119sub_matchIN9__gnu_cxx17__normal_iteratorIPcNS_12basic_stringIcSt11char_traitsIcESaIcEEEEEEEED1Ev
	movl	-60(%ebp), %eax
	movl	12(%eax), %edx
	movl	-60(%ebp), %eax
	movl	8(%eax), %eax
	movl	-60(%ebp), %ecx
	addl	$16, %ecx
	movl	%edx, 16(%esp)
	movl	%eax, 12(%esp)
	movl	%ecx, 8(%esp)
	movl	-60(%ebp), %eax
	movl	4(%eax), %eax
	movl	%eax, 4(%esp)
	movl	-60(%ebp), %eax
	movl	(%eax), %eax
	movl	%eax, (%esp)
LEHB76:
	call	__ZSt12regex_searchIN9__gnu_cxx17__normal_iteratorIPcNSt7__cxx1112basic_stringIcSt11char_traitsIcESaIcEEEEESaINS3_9sub_matchIS9_EEEcNS3_12regex_traitsIcEEEbT_SF_RNS3_13match_resultsISF_T0_EERKNS3_11basic_regexIT1_T2_EENSt15regex_constants15match_flag_typeE
	xorl	$1, %eax
	testb	%al, %al
	je	L417
	leal	-40(%ebp), %eax
	movl	%eax, %ecx
	call	__ZNSt7__cxx1114regex_iteratorIN9__gnu_cxx17__normal_iteratorIPcNS_12basic_stringIcSt11char_traitsIcESaIcEEEEEcNS_12regex_traitsIcEEEC1Ev
LEHE76:
	movl	-60(%ebp), %eax
	leal	-40(%ebp), %edx
	movl	%edx, (%esp)
	movl	%eax, %ecx
LEHB77:
	call	__ZNSt7__cxx1114regex_iteratorIN9__gnu_cxx17__normal_iteratorIPcNS_12basic_stringIcSt11char_traitsIcESaIcEEEEEcNS_12regex_traitsIcEEEaSERKSC_
LEHE77:
	subl	$4, %esp
	leal	-40(%ebp), %eax
	movl	%eax, %ecx
	call	__ZNSt7__cxx1114regex_iteratorIN9__gnu_cxx17__normal_iteratorIPcNS_12basic_stringIcSt11char_traitsIcESaIcEEEEEcNS_12regex_traitsIcEEED1Ev
	jmp	L417
L416:
	movl	%eax, %ebx
	leal	-40(%ebp), %eax
	movl	%eax, %ecx
	call	__ZNSt7__cxx1114regex_iteratorIN9__gnu_cxx17__normal_iteratorIPcNS_12basic_stringIcSt11char_traitsIcESaIcEEEEEcNS_12regex_traitsIcEEED1Ev
	jmp	L414
L415:
	movl	%eax, %ebx
L414:
	movl	-60(%ebp), %eax
	addl	$16, %eax
	movl	%eax, %ecx
	call	__ZNSt7__cxx1113match_resultsIN9__gnu_cxx17__normal_iteratorIPcNS_12basic_stringIcSt11char_traitsIcESaIcEEEEESaINS_9sub_matchIS9_EEEED1Ev
	movl	%ebx, %eax
	movl	%eax, (%esp)
LEHB78:
	call	__Unwind_Resume
LEHE78:
L417:
	nop
	movl	-4(%ebp), %ebx
	leave
	.cfi_restore 5
	.cfi_restore 3
	.cfi_def_cfa 4, 4
	ret	$16
	.cfi_endproc
LFE4960:
	.section	.gcc_except_table,"w"
LLSDA4960:
	.byte	0xff
	.byte	0xff
	.byte	0x1
	.uleb128 LLSDACSE4960-LLSDACSB4960
LLSDACSB4960:
	.uleb128 LEHB76-LFB4960
	.uleb128 LEHE76-LEHB76
	.uleb128 L415-LFB4960
	.uleb128 0
	.uleb128 LEHB77-LFB4960
	.uleb128 LEHE77-LEHB77
	.uleb128 L416-LFB4960
	.uleb128 0
	.uleb128 LEHB78-LFB4960
	.uleb128 LEHE78-LEHB78
	.uleb128 0
	.uleb128 0
LLSDACSE4960:
	.section	.text$_ZNSt7__cxx1114regex_iteratorIN9__gnu_cxx17__normal_iteratorIPcNS_12basic_stringIcSt11char_traitsIcESaIcEEEEEcNS_12regex_traitsIcEEEC1ES9_S9_RKNS_11basic_regexIcSB_EENSt15regex_constants15match_flag_typeE,"x"
	.linkonce discard
	.section	.text$_ZNSt7__cxx1113match_resultsIN9__gnu_cxx17__normal_iteratorIPcNS_12basic_stringIcSt11char_traitsIcESaIcEEEEESaINS_9sub_matchIS9_EEEED1Ev,"x"
	.linkonce discard
	.align 2
	.globl	__ZNSt7__cxx1113match_resultsIN9__gnu_cxx17__normal_iteratorIPcNS_12basic_stringIcSt11char_traitsIcESaIcEEEEESaINS_9sub_matchIS9_EEEED1Ev
	.def	__ZNSt7__cxx1113match_resultsIN9__gnu_cxx17__normal_iteratorIPcNS_12basic_stringIcSt11char_traitsIcESaIcEEEEESaINS_9sub_matchIS9_EEEED1Ev;	.scl	2;	.type	32;	.endef
__ZNSt7__cxx1113match_resultsIN9__gnu_cxx17__normal_iteratorIPcNS_12basic_stringIcSt11char_traitsIcESaIcEEEEESaINS_9sub_matchIS9_EEEED1Ev:
LFB4963:
	.cfi_startproc
	pushl	%ebp
	.cfi_def_cfa_offset 8
	.cfi_offset 5, -8
	movl	%esp, %ebp
	.cfi_def_cfa_register 5
	subl	$24, %esp
	movl	%ecx, -12(%ebp)
	movl	-12(%ebp), %eax
	movl	%eax, %ecx
	call	__ZNSt6vectorINSt7__cxx119sub_matchIN9__gnu_cxx17__normal_iteratorIPcNS0_12basic_stringIcSt11char_traitsIcESaIcEEEEEEESaISB_EED2Ev
	nop
	leave
	.cfi_restore 5
	.cfi_def_cfa 4, 4
	ret
	.cfi_endproc
LFE4963:
	.section	.text$_ZNSt7__cxx1114regex_iteratorIN9__gnu_cxx17__normal_iteratorIPcNS_12basic_stringIcSt11char_traitsIcESaIcEEEEEcNS_12regex_traitsIcEEEC1Ev,"x"
	.linkonce discard
	.align 2
	.globl	__ZNSt7__cxx1114regex_iteratorIN9__gnu_cxx17__normal_iteratorIPcNS_12basic_stringIcSt11char_traitsIcESaIcEEEEEcNS_12regex_traitsIcEEEC1Ev
	.def	__ZNSt7__cxx1114regex_iteratorIN9__gnu_cxx17__normal_iteratorIPcNS_12basic_stringIcSt11char_traitsIcESaIcEEEEEcNS_12regex_traitsIcEEEC1Ev;	.scl	2;	.type	32;	.endef
__ZNSt7__cxx1114regex_iteratorIN9__gnu_cxx17__normal_iteratorIPcNS_12basic_stringIcSt11char_traitsIcESaIcEEEEEcNS_12regex_traitsIcEEEC1Ev:
LFB4966:
	.cfi_startproc
	pushl	%ebp
	.cfi_def_cfa_offset 8
	.cfi_offset 5, -8
	movl	%esp, %ebp
	.cfi_def_cfa_register 5
	subl	$56, %esp
	movl	%ecx, -28(%ebp)
	movl	-28(%ebp), %eax
	movl	%eax, %ecx
	call	__ZN9__gnu_cxx17__normal_iteratorIPcNSt7__cxx1112basic_stringIcSt11char_traitsIcESaIcEEEEC1Ev
	movl	-28(%ebp), %eax
	addl	$4, %eax
	movl	%eax, %ecx
	call	__ZN9__gnu_cxx17__normal_iteratorIPcNSt7__cxx1112basic_stringIcSt11char_traitsIcESaIcEEEEC1Ev
	leal	-9(%ebp), %eax
	movl	%eax, %ecx
	call	__ZNSaINSt7__cxx119sub_matchIN9__gnu_cxx17__normal_iteratorIPcNS_12basic_stringIcSt11char_traitsIcESaIcEEEEEEEEC1Ev
	movl	-28(%ebp), %eax
	leal	16(%eax), %edx
	leal	-9(%ebp), %eax
	movl	%eax, (%esp)
	movl	%edx, %ecx
	call	__ZNSt7__cxx1113match_resultsIN9__gnu_cxx17__normal_iteratorIPcNS_12basic_stringIcSt11char_traitsIcESaIcEEEEESaINS_9sub_matchIS9_EEEEC1ERKSC_
	subl	$4, %esp
	leal	-9(%ebp), %eax
	movl	%eax, %ecx
	call	__ZNSaINSt7__cxx119sub_matchIN9__gnu_cxx17__normal_iteratorIPcNS_12basic_stringIcSt11char_traitsIcESaIcEEEEEEEED1Ev
	nop
	leave
	.cfi_restore 5
	.cfi_def_cfa 4, 4
	ret
	.cfi_endproc
LFE4966:
	.section	.text$_ZNKSt7__cxx1114regex_iteratorIN9__gnu_cxx17__normal_iteratorIPcNS_12basic_stringIcSt11char_traitsIcESaIcEEEEEcNS_12regex_traitsIcEEEeqERKSC_,"x"
	.linkonce discard
	.align 2
	.globl	__ZNKSt7__cxx1114regex_iteratorIN9__gnu_cxx17__normal_iteratorIPcNS_12basic_stringIcSt11char_traitsIcESaIcEEEEEcNS_12regex_traitsIcEEEeqERKSC_
	.def	__ZNKSt7__cxx1114regex_iteratorIN9__gnu_cxx17__normal_iteratorIPcNS_12basic_stringIcSt11char_traitsIcESaIcEEEEEcNS_12regex_traitsIcEEEeqERKSC_;	.scl	2;	.type	32;	.endef
__ZNKSt7__cxx1114regex_iteratorIN9__gnu_cxx17__normal_iteratorIPcNS_12basic_stringIcSt11char_traitsIcESaIcEEEEEcNS_12regex_traitsIcEEEeqERKSC_:
LFB4967:
	.cfi_startproc
	pushl	%ebp
	.cfi_def_cfa_offset 8
	.cfi_offset 5, -8
	movl	%esp, %ebp
	.cfi_def_cfa_register 5
	pushl	%ebx
	subl	$36, %esp
	.cfi_offset 3, -12
	movl	%ecx, -12(%ebp)
	movl	-12(%ebp), %eax
	addl	$16, %eax
	movl	%eax, %ecx
	call	__ZNKSt7__cxx1113match_resultsIN9__gnu_cxx17__normal_iteratorIPcNS_12basic_stringIcSt11char_traitsIcESaIcEEEEESaINS_9sub_matchIS9_EEEE5emptyEv
	testb	%al, %al
	je	L421
	movl	8(%ebp), %eax
	addl	$16, %eax
	movl	%eax, %ecx
	call	__ZNKSt7__cxx1113match_resultsIN9__gnu_cxx17__normal_iteratorIPcNS_12basic_stringIcSt11char_traitsIcESaIcEEEEESaINS_9sub_matchIS9_EEEE5emptyEv
	testb	%al, %al
	jne	L422
L421:
	movl	8(%ebp), %edx
	movl	-12(%ebp), %eax
	movl	%edx, 4(%esp)
	movl	%eax, (%esp)
	call	__ZN9__gnu_cxxeqIPcNSt7__cxx1112basic_stringIcSt11char_traitsIcESaIcEEEEEbRKNS_17__normal_iteratorIT_T0_EESD_
	testb	%al, %al
	je	L423
	movl	8(%ebp), %eax
	leal	4(%eax), %edx
	movl	-12(%ebp), %eax
	addl	$4, %eax
	movl	%edx, 4(%esp)
	movl	%eax, (%esp)
	call	__ZN9__gnu_cxxeqIPcNSt7__cxx1112basic_stringIcSt11char_traitsIcESaIcEEEEEbRKNS_17__normal_iteratorIT_T0_EESD_
	testb	%al, %al
	je	L423
	movl	-12(%ebp), %eax
	movl	8(%eax), %edx
	movl	8(%ebp), %eax
	movl	8(%eax), %eax
	cmpl	%eax, %edx
	jne	L423
	movl	-12(%ebp), %eax
	movl	12(%eax), %edx
	movl	8(%ebp), %eax
	movl	12(%eax), %eax
	cmpl	%eax, %edx
	jne	L423
	movl	8(%ebp), %eax
	addl	$16, %eax
	movl	$0, (%esp)
	movl	%eax, %ecx
	call	__ZNKSt7__cxx1113match_resultsIN9__gnu_cxx17__normal_iteratorIPcNS_12basic_stringIcSt11char_traitsIcESaIcEEEEESaINS_9sub_matchIS9_EEEEixEj
	subl	$4, %esp
	movl	%eax, %ebx
	movl	-12(%ebp), %eax
	addl	$16, %eax
	movl	$0, (%esp)
	movl	%eax, %ecx
	call	__ZNKSt7__cxx1113match_resultsIN9__gnu_cxx17__normal_iteratorIPcNS_12basic_stringIcSt11char_traitsIcESaIcEEEEESaINS_9sub_matchIS9_EEEEixEj
	subl	$4, %esp
	movl	%ebx, 4(%esp)
	movl	%eax, (%esp)
	call	__ZNSt7__cxx11eqIN9__gnu_cxx17__normal_iteratorIPcNS_12basic_stringIcSt11char_traitsIcESaIcEEEEEEEbRKNS_9sub_matchIT_EESE_
	testb	%al, %al
	je	L423
L422:
	movl	$1, %eax
	jmp	L424
L423:
	movl	$0, %eax
L424:
	movl	-4(%ebp), %ebx
	leave
	.cfi_restore 5
	.cfi_restore 3
	.cfi_def_cfa 4, 4
	ret	$4
	.cfi_endproc
LFE4967:
	.section	.text$_ZSt4copyIN9__gnu_cxx17__normal_iteratorIPcNSt7__cxx1112basic_stringIcSt11char_traitsIcESaIcEEEEESt20back_insert_iteratorIS8_EET0_T_SD_SC_,"x"
	.linkonce discard
	.globl	__ZSt4copyIN9__gnu_cxx17__normal_iteratorIPcNSt7__cxx1112basic_stringIcSt11char_traitsIcESaIcEEEEESt20back_insert_iteratorIS8_EET0_T_SD_SC_
	.def	__ZSt4copyIN9__gnu_cxx17__normal_iteratorIPcNSt7__cxx1112basic_stringIcSt11char_traitsIcESaIcEEEEESt20back_insert_iteratorIS8_EET0_T_SD_SC_;	.scl	2;	.type	32;	.endef
__ZSt4copyIN9__gnu_cxx17__normal_iteratorIPcNSt7__cxx1112basic_stringIcSt11char_traitsIcESaIcEEEEESt20back_insert_iteratorIS8_EET0_T_SD_SC_:
LFB4968:
	.cfi_startproc
	pushl	%ebp
	.cfi_def_cfa_offset 8
	.cfi_offset 5, -8
	movl	%esp, %ebp
	.cfi_def_cfa_register 5
	pushl	%ebx
	subl	$20, %esp
	.cfi_offset 3, -12
	movl	12(%ebp), %eax
	movl	%eax, (%esp)
	call	__ZSt12__miter_baseIN9__gnu_cxx17__normal_iteratorIPcNSt7__cxx1112basic_stringIcSt11char_traitsIcESaIcEEEEEET_SA_
	movl	%eax, %ebx
	movl	8(%ebp), %eax
	movl	%eax, (%esp)
	call	__ZSt12__miter_baseIN9__gnu_cxx17__normal_iteratorIPcNSt7__cxx1112basic_stringIcSt11char_traitsIcESaIcEEEEEET_SA_
	movl	%eax, %edx
	movl	16(%ebp), %eax
	movl	%eax, 8(%esp)
	movl	%ebx, 4(%esp)
	movl	%edx, (%esp)
	call	__ZSt14__copy_move_a2ILb0EN9__gnu_cxx17__normal_iteratorIPcNSt7__cxx1112basic_stringIcSt11char_traitsIcESaIcEEEEESt20back_insert_iteratorIS8_EET1_T0_SD_SC_
	addl	$20, %esp
	popl	%ebx
	.cfi_restore 3
	popl	%ebp
	.cfi_restore 5
	.cfi_def_cfa 4, 4
	ret
	.cfi_endproc
LFE4968:
	.section	.text$_ZNKSt7__cxx1114regex_iteratorIN9__gnu_cxx17__normal_iteratorIPcNS_12basic_stringIcSt11char_traitsIcESaIcEEEEEcNS_12regex_traitsIcEEEneERKSC_,"x"
	.linkonce discard
	.align 2
	.globl	__ZNKSt7__cxx1114regex_iteratorIN9__gnu_cxx17__normal_iteratorIPcNS_12basic_stringIcSt11char_traitsIcESaIcEEEEEcNS_12regex_traitsIcEEEneERKSC_
	.def	__ZNKSt7__cxx1114regex_iteratorIN9__gnu_cxx17__normal_iteratorIPcNS_12basic_stringIcSt11char_traitsIcESaIcEEEEEcNS_12regex_traitsIcEEEneERKSC_;	.scl	2;	.type	32;	.endef
__ZNKSt7__cxx1114regex_iteratorIN9__gnu_cxx17__normal_iteratorIPcNS_12basic_stringIcSt11char_traitsIcESaIcEEEEEcNS_12regex_traitsIcEEEneERKSC_:
LFB4969:
	.cfi_startproc
	pushl	%ebp
	.cfi_def_cfa_offset 8
	.cfi_offset 5, -8
	movl	%esp, %ebp
	.cfi_def_cfa_register 5
	subl	$40, %esp
	movl	%ecx, -12(%ebp)
	movl	-12(%ebp), %eax
	movl	8(%ebp), %edx
	movl	%edx, (%esp)
	movl	%eax, %ecx
	call	__ZNKSt7__cxx1114regex_iteratorIN9__gnu_cxx17__normal_iteratorIPcNS_12basic_stringIcSt11char_traitsIcESaIcEEEEEcNS_12regex_traitsIcEEEeqERKSC_
	subl	$4, %esp
	xorl	$1, %eax
	leave
	.cfi_restore 5
	.cfi_def_cfa 4, 4
	ret	$4
	.cfi_endproc
LFE4969:
	.section	.text$_ZN9__gnu_cxx14__alloc_traitsISaINSt7__cxx119sub_matchINS_17__normal_iteratorIPcNS1_12basic_stringIcSt11char_traitsIcESaIcEEEEEEEEE15_S_always_equalEv,"x"
	.linkonce discard
	.globl	__ZN9__gnu_cxx14__alloc_traitsISaINSt7__cxx119sub_matchINS_17__normal_iteratorIPcNS1_12basic_stringIcSt11char_traitsIcESaIcEEEEEEEEE15_S_always_equalEv
	.def	__ZN9__gnu_cxx14__alloc_traitsISaINSt7__cxx119sub_matchINS_17__normal_iteratorIPcNS1_12basic_stringIcSt11char_traitsIcESaIcEEEEEEEEE15_S_always_equalEv;	.scl	2;	.type	32;	.endef
__ZN9__gnu_cxx14__alloc_traitsISaINSt7__cxx119sub_matchINS_17__normal_iteratorIPcNS1_12basic_stringIcSt11char_traitsIcESaIcEEEEEEEEE15_S_always_equalEv:
LFB4973:
	.cfi_startproc
	pushl	%ebp
	.cfi_def_cfa_offset 8
	.cfi_offset 5, -8
	movl	%esp, %ebp
	.cfi_def_cfa_register 5
	movl	$1, %eax
	popl	%ebp
	.cfi_restore 5
	.cfi_def_cfa 4, 4
	ret
	.cfi_endproc
LFE4973:
	.section	.text$_ZNSt7__cxx1113match_resultsIN9__gnu_cxx17__normal_iteratorIPcNS_12basic_stringIcSt11char_traitsIcESaIcEEEEESaINS_9sub_matchIS9_EEEEaSEOSD_,"x"
	.linkonce discard
	.align 2
	.globl	__ZNSt7__cxx1113match_resultsIN9__gnu_cxx17__normal_iteratorIPcNS_12basic_stringIcSt11char_traitsIcESaIcEEEEESaINS_9sub_matchIS9_EEEEaSEOSD_
	.def	__ZNSt7__cxx1113match_resultsIN9__gnu_cxx17__normal_iteratorIPcNS_12basic_stringIcSt11char_traitsIcESaIcEEEEESaINS_9sub_matchIS9_EEEEaSEOSD_;	.scl	2;	.type	32;	.endef
__ZNSt7__cxx1113match_resultsIN9__gnu_cxx17__normal_iteratorIPcNS_12basic_stringIcSt11char_traitsIcESaIcEEEEESaINS_9sub_matchIS9_EEEEaSEOSD_:
LFB4974:
	.cfi_startproc
	pushl	%ebp
	.cfi_def_cfa_offset 8
	.cfi_offset 5, -8
	movl	%esp, %ebp
	.cfi_def_cfa_register 5
	subl	$40, %esp
	movl	%ecx, -12(%ebp)
	movl	8(%ebp), %edx
	movl	-12(%ebp), %eax
	movl	%edx, (%esp)
	movl	%eax, %ecx
	call	__ZNSt6vectorINSt7__cxx119sub_matchIN9__gnu_cxx17__normal_iteratorIPcNS0_12basic_stringIcSt11char_traitsIcESaIcEEEEEEESaISB_EEaSEOSD_
	subl	$4, %esp
	movl	-12(%ebp), %eax
	movl	8(%ebp), %edx
	movl	12(%edx), %edx
	movl	%edx, 12(%eax)
	movl	-12(%ebp), %eax
	leave
	.cfi_restore 5
	.cfi_def_cfa 4, 4
	ret	$4
	.cfi_endproc
LFE4974:
	.section	.text$_ZNSt7__cxx1114regex_iteratorIN9__gnu_cxx17__normal_iteratorIPcNS_12basic_stringIcSt11char_traitsIcESaIcEEEEEcNS_12regex_traitsIcEEEppEv,"x"
	.linkonce discard
	.align 2
	.globl	__ZNSt7__cxx1114regex_iteratorIN9__gnu_cxx17__normal_iteratorIPcNS_12basic_stringIcSt11char_traitsIcESaIcEEEEEcNS_12regex_traitsIcEEEppEv
	.def	__ZNSt7__cxx1114regex_iteratorIN9__gnu_cxx17__normal_iteratorIPcNS_12basic_stringIcSt11char_traitsIcESaIcEEEEEcNS_12regex_traitsIcEEEppEv;	.scl	2;	.type	32;	.endef
__ZNSt7__cxx1114regex_iteratorIN9__gnu_cxx17__normal_iteratorIPcNS_12basic_stringIcSt11char_traitsIcESaIcEEEEEcNS_12regex_traitsIcEEEppEv:
LFB4970:
	.cfi_startproc
	pushl	%ebp
	.cfi_def_cfa_offset 8
	.cfi_offset 5, -8
	movl	%esp, %ebp
	.cfi_def_cfa_register 5
	pushl	%ebx
	subl	$116, %esp
	.cfi_offset 3, -12
	movl	%ecx, -76(%ebp)
	movl	-76(%ebp), %eax
	addl	$16, %eax
	movl	$0, (%esp)
	movl	%eax, %ecx
	call	__ZNKSt7__cxx1113match_resultsIN9__gnu_cxx17__normal_iteratorIPcNS_12basic_stringIcSt11char_traitsIcESaIcEEEEESaINS_9sub_matchIS9_EEEEixEj
	subl	$4, %esp
	movzbl	8(%eax), %eax
	testb	%al, %al
	je	L435
	movl	-76(%ebp), %eax
	addl	$16, %eax
	movl	$0, (%esp)
	movl	%eax, %ecx
	call	__ZNKSt7__cxx1113match_resultsIN9__gnu_cxx17__normal_iteratorIPcNS_12basic_stringIcSt11char_traitsIcESaIcEEEEESaINS_9sub_matchIS9_EEEEixEj
	subl	$4, %esp
	movl	4(%eax), %eax
	movl	%eax, -60(%ebp)
	movl	-76(%ebp), %eax
	addl	$16, %eax
	movl	$0, (%esp)
	movl	%eax, %ecx
	call	__ZNKSt7__cxx1113match_resultsIN9__gnu_cxx17__normal_iteratorIPcNS_12basic_stringIcSt11char_traitsIcESaIcEEEEESaINS_9sub_matchIS9_EEEEixEj
	subl	$4, %esp
	movl	4(%eax), %eax
	movl	%eax, -64(%ebp)
	movl	-76(%ebp), %eax
	addl	$16, %eax
	movl	$0, (%esp)
	movl	%eax, %ecx
	call	__ZNKSt7__cxx1113match_resultsIN9__gnu_cxx17__normal_iteratorIPcNS_12basic_stringIcSt11char_traitsIcESaIcEEEEESaINS_9sub_matchIS9_EEEEixEj
	subl	$4, %esp
	leal	4(%eax), %ebx
	movl	-76(%ebp), %eax
	addl	$16, %eax
	movl	$0, (%esp)
	movl	%eax, %ecx
	call	__ZNKSt7__cxx1113match_resultsIN9__gnu_cxx17__normal_iteratorIPcNS_12basic_stringIcSt11char_traitsIcESaIcEEEEESaINS_9sub_matchIS9_EEEEixEj
	subl	$4, %esp
	movl	%ebx, 4(%esp)
	movl	%eax, (%esp)
	call	__ZN9__gnu_cxxeqIPcNSt7__cxx1112basic_stringIcSt11char_traitsIcESaIcEEEEEbRKNS_17__normal_iteratorIT_T0_EESD_
	testb	%al, %al
	je	L436
	movl	-76(%ebp), %eax
	addl	$4, %eax
	movl	%eax, 4(%esp)
	leal	-60(%ebp), %eax
	movl	%eax, (%esp)
	call	__ZN9__gnu_cxxeqIPcNSt7__cxx1112basic_stringIcSt11char_traitsIcESaIcEEEEEbRKNS_17__normal_iteratorIT_T0_EESD_
	testb	%al, %al
	je	L437
	leal	-37(%ebp), %eax
	movl	%eax, %ecx
	call	__ZNSaINSt7__cxx119sub_matchIN9__gnu_cxx17__normal_iteratorIPcNS_12basic_stringIcSt11char_traitsIcESaIcEEEEEEEEC1Ev
	leal	-56(%ebp), %eax
	leal	-37(%ebp), %edx
	movl	%edx, (%esp)
	movl	%eax, %ecx
	call	__ZNSt7__cxx1113match_resultsIN9__gnu_cxx17__normal_iteratorIPcNS_12basic_stringIcSt11char_traitsIcESaIcEEEEESaINS_9sub_matchIS9_EEEEC1ERKSC_
	subl	$4, %esp
	movl	-76(%ebp), %eax
	leal	16(%eax), %edx
	leal	-56(%ebp), %eax
	movl	%eax, (%esp)
	movl	%edx, %ecx
	call	__ZNSt7__cxx1113match_resultsIN9__gnu_cxx17__normal_iteratorIPcNS_12basic_stringIcSt11char_traitsIcESaIcEEEEESaINS_9sub_matchIS9_EEEEaSEOSD_
	subl	$4, %esp
	leal	-56(%ebp), %eax
	movl	%eax, %ecx
	call	__ZNSt7__cxx1113match_resultsIN9__gnu_cxx17__normal_iteratorIPcNS_12basic_stringIcSt11char_traitsIcESaIcEEEEESaINS_9sub_matchIS9_EEEED1Ev
	leal	-37(%ebp), %eax
	movl	%eax, %ecx
	call	__ZNSaINSt7__cxx119sub_matchIN9__gnu_cxx17__normal_iteratorIPcNS_12basic_stringIcSt11char_traitsIcESaIcEEEEEEEED1Ev
	movl	-76(%ebp), %eax
	jmp	L442
L437:
	movl	-76(%ebp), %eax
	movl	12(%eax), %eax
	movl	$32, 4(%esp)
	movl	%eax, (%esp)
	call	__ZNSt15regex_constantsorENS_15match_flag_typeES0_
	movl	$64, 4(%esp)
	movl	%eax, (%esp)
	call	__ZNSt15regex_constantsorENS_15match_flag_typeES0_
	movl	%eax, %ecx
	movl	-76(%ebp), %eax
	movl	8(%eax), %eax
	movl	-76(%ebp), %edx
	addl	$16, %edx
	movl	%ecx, 16(%esp)
	movl	%eax, 12(%esp)
	movl	%edx, 8(%esp)
	movl	-76(%ebp), %eax
	movl	4(%eax), %eax
	movl	%eax, 4(%esp)
	movl	-60(%ebp), %eax
	movl	%eax, (%esp)
	call	__ZSt12regex_searchIN9__gnu_cxx17__normal_iteratorIPcNSt7__cxx1112basic_stringIcSt11char_traitsIcESaIcEEEEESaINS3_9sub_matchIS9_EEEcNS3_12regex_traitsIcEEEbT_SF_RNS3_13match_resultsISF_T0_EERKNS3_11basic_regexIT1_T2_EENSt15regex_constants15match_flag_typeE
	testb	%al, %al
	je	L439
	movl	-76(%ebp), %eax
	addl	$16, %eax
	movl	%eax, %ecx
	call	__ZNSt7__cxx1113match_resultsIN9__gnu_cxx17__normal_iteratorIPcNS_12basic_stringIcSt11char_traitsIcESaIcEEEEESaINS_9sub_matchIS9_EEEE9_M_prefixEv
	movl	%eax, -12(%ebp)
	movl	-12(%ebp), %eax
	movl	-64(%ebp), %edx
	movl	%edx, (%eax)
	movl	-12(%ebp), %eax
	leal	4(%eax), %edx
	movl	-12(%ebp), %eax
	movl	%edx, 4(%esp)
	movl	%eax, (%esp)
	call	__ZN9__gnu_cxxneIPcNSt7__cxx1112basic_stringIcSt11char_traitsIcESaIcEEEEEbRKNS_17__normal_iteratorIT_T0_EESD_
	movl	%eax, %edx
	movl	-12(%ebp), %eax
	movb	%dl, 8(%eax)
	movl	-76(%ebp), %eax
	movl	-76(%ebp), %edx
	movl	(%edx), %edx
	movl	%edx, 28(%eax)
	movl	-76(%ebp), %eax
	jmp	L442
L439:
	leal	-60(%ebp), %eax
	movl	%eax, %ecx
	call	__ZN9__gnu_cxx17__normal_iteratorIPcNSt7__cxx1112basic_stringIcSt11char_traitsIcESaIcEEEEppEv
L436:
	movl	-76(%ebp), %eax
	addl	$12, %eax
	movl	$128, 4(%esp)
	movl	%eax, (%esp)
	call	__ZNSt15regex_constantsoRERNS_15match_flag_typeES0_
	movl	-76(%ebp), %eax
	movl	12(%eax), %edx
	movl	-76(%ebp), %eax
	movl	8(%eax), %eax
	movl	-76(%ebp), %ecx
	addl	$16, %ecx
	movl	%edx, 16(%esp)
	movl	%eax, 12(%esp)
	movl	%ecx, 8(%esp)
	movl	-76(%ebp), %eax
	movl	4(%eax), %eax
	movl	%eax, 4(%esp)
	movl	-60(%ebp), %eax
	movl	%eax, (%esp)
	call	__ZSt12regex_searchIN9__gnu_cxx17__normal_iteratorIPcNSt7__cxx1112basic_stringIcSt11char_traitsIcESaIcEEEEESaINS3_9sub_matchIS9_EEEcNS3_12regex_traitsIcEEEbT_SF_RNS3_13match_resultsISF_T0_EERKNS3_11basic_regexIT1_T2_EENSt15regex_constants15match_flag_typeE
	testb	%al, %al
	je	L440
	movl	-76(%ebp), %eax
	addl	$16, %eax
	movl	%eax, %ecx
	call	__ZNSt7__cxx1113match_resultsIN9__gnu_cxx17__normal_iteratorIPcNS_12basic_stringIcSt11char_traitsIcESaIcEEEEESaINS_9sub_matchIS9_EEEE9_M_prefixEv
	movl	%eax, -16(%ebp)
	movl	-16(%ebp), %eax
	movl	-64(%ebp), %edx
	movl	%edx, (%eax)
	movl	-16(%ebp), %eax
	leal	4(%eax), %edx
	movl	-16(%ebp), %eax
	movl	%edx, 4(%esp)
	movl	%eax, (%esp)
	call	__ZN9__gnu_cxxneIPcNSt7__cxx1112basic_stringIcSt11char_traitsIcESaIcEEEEEbRKNS_17__normal_iteratorIT_T0_EESD_
	movl	%eax, %edx
	movl	-16(%ebp), %eax
	movb	%dl, 8(%eax)
	movl	-76(%ebp), %eax
	movl	-76(%ebp), %edx
	movl	(%edx), %edx
	movl	%edx, 28(%eax)
	jmp	L435
L440:
	leal	-17(%ebp), %eax
	movl	%eax, %ecx
	call	__ZNSaINSt7__cxx119sub_matchIN9__gnu_cxx17__normal_iteratorIPcNS_12basic_stringIcSt11char_traitsIcESaIcEEEEEEEEC1Ev
	leal	-36(%ebp), %eax
	leal	-17(%ebp), %edx
	movl	%edx, (%esp)
	movl	%eax, %ecx
	call	__ZNSt7__cxx1113match_resultsIN9__gnu_cxx17__normal_iteratorIPcNS_12basic_stringIcSt11char_traitsIcESaIcEEEEESaINS_9sub_matchIS9_EEEEC1ERKSC_
	subl	$4, %esp
	movl	-76(%ebp), %eax
	leal	16(%eax), %edx
	leal	-36(%ebp), %eax
	movl	%eax, (%esp)
	movl	%edx, %ecx
	call	__ZNSt7__cxx1113match_resultsIN9__gnu_cxx17__normal_iteratorIPcNS_12basic_stringIcSt11char_traitsIcESaIcEEEEESaINS_9sub_matchIS9_EEEEaSEOSD_
	subl	$4, %esp
	leal	-36(%ebp), %eax
	movl	%eax, %ecx
	call	__ZNSt7__cxx1113match_resultsIN9__gnu_cxx17__normal_iteratorIPcNS_12basic_stringIcSt11char_traitsIcESaIcEEEEESaINS_9sub_matchIS9_EEEED1Ev
	leal	-17(%ebp), %eax
	movl	%eax, %ecx
	call	__ZNSaINSt7__cxx119sub_matchIN9__gnu_cxx17__normal_iteratorIPcNS_12basic_stringIcSt11char_traitsIcESaIcEEEEEEEED1Ev
L435:
	movl	-76(%ebp), %eax
L442:
	movl	-4(%ebp), %ebx
	leave
	.cfi_restore 5
	.cfi_restore 3
	.cfi_def_cfa 4, 4
	ret
	.cfi_endproc
LFE4970:
	.section	.text$_ZNKSt7__cxx1114regex_iteratorIN9__gnu_cxx17__normal_iteratorIPcNS_12basic_stringIcSt11char_traitsIcESaIcEEEEEcNS_12regex_traitsIcEEEptEv,"x"
	.linkonce discard
	.align 2
	.globl	__ZNKSt7__cxx1114regex_iteratorIN9__gnu_cxx17__normal_iteratorIPcNS_12basic_stringIcSt11char_traitsIcESaIcEEEEEcNS_12regex_traitsIcEEEptEv
	.def	__ZNKSt7__cxx1114regex_iteratorIN9__gnu_cxx17__normal_iteratorIPcNS_12basic_stringIcSt11char_traitsIcESaIcEEEEEcNS_12regex_traitsIcEEEptEv;	.scl	2;	.type	32;	.endef
__ZNKSt7__cxx1114regex_iteratorIN9__gnu_cxx17__normal_iteratorIPcNS_12basic_stringIcSt11char_traitsIcESaIcEEEEEcNS_12regex_traitsIcEEEptEv:
LFB4975:
	.cfi_startproc
	pushl	%ebp
	.cfi_def_cfa_offset 8
	.cfi_offset 5, -8
	movl	%esp, %ebp
	.cfi_def_cfa_register 5
	subl	$4, %esp
	movl	%ecx, -4(%ebp)
	movl	-4(%ebp), %eax
	addl	$16, %eax
	leave
	.cfi_restore 5
	.cfi_def_cfa 4, 4
	ret
	.cfi_endproc
LFE4975:
	.section	.text$_ZNKSt7__cxx1113match_resultsIN9__gnu_cxx17__normal_iteratorIPcNS_12basic_stringIcSt11char_traitsIcESaIcEEEEESaINS_9sub_matchIS9_EEEE6prefixEv,"x"
	.linkonce discard
	.align 2
	.globl	__ZNKSt7__cxx1113match_resultsIN9__gnu_cxx17__normal_iteratorIPcNS_12basic_stringIcSt11char_traitsIcESaIcEEEEESaINS_9sub_matchIS9_EEEE6prefixEv
	.def	__ZNKSt7__cxx1113match_resultsIN9__gnu_cxx17__normal_iteratorIPcNS_12basic_stringIcSt11char_traitsIcESaIcEEEEESaINS_9sub_matchIS9_EEEE6prefixEv;	.scl	2;	.type	32;	.endef
__ZNKSt7__cxx1113match_resultsIN9__gnu_cxx17__normal_iteratorIPcNS_12basic_stringIcSt11char_traitsIcESaIcEEEEESaINS_9sub_matchIS9_EEEE6prefixEv:
LFB4976:
	.cfi_startproc
	pushl	%ebp
	.cfi_def_cfa_offset 8
	.cfi_offset 5, -8
	movl	%esp, %ebp
	.cfi_def_cfa_register 5
	subl	$24, %esp
	movl	%ecx, -12(%ebp)
	movl	-12(%ebp), %eax
	movl	%eax, %ecx
	call	__ZNKSt7__cxx1113match_resultsIN9__gnu_cxx17__normal_iteratorIPcNS_12basic_stringIcSt11char_traitsIcESaIcEEEEESaINS_9sub_matchIS9_EEEE5emptyEv
	xorl	$1, %eax
	testb	%al, %al
	je	L446
	movl	-12(%ebp), %eax
	movl	%eax, %ecx
	call	__ZNKSt7__cxx1113match_resultsIN9__gnu_cxx17__normal_iteratorIPcNS_12basic_stringIcSt11char_traitsIcESaIcEEEEESaINS_9sub_matchIS9_EEEE9_M_prefixEv
	jmp	L448
L446:
	movl	-12(%ebp), %eax
	movl	%eax, %ecx
	call	__ZNKSt7__cxx1113match_resultsIN9__gnu_cxx17__normal_iteratorIPcNS_12basic_stringIcSt11char_traitsIcESaIcEEEEESaINS_9sub_matchIS9_EEEE16_M_unmatched_subEv
L448:
	leave
	.cfi_restore 5
	.cfi_def_cfa 4, 4
	ret
	.cfi_endproc
LFE4976:
	.section	.text$_ZNSt7__cxx1112regex_traitsIcED1Ev,"x"
	.linkonce discard
	.align 2
	.globl	__ZNSt7__cxx1112regex_traitsIcED1Ev
	.def	__ZNSt7__cxx1112regex_traitsIcED1Ev;	.scl	2;	.type	32;	.endef
__ZNSt7__cxx1112regex_traitsIcED1Ev:
LFB4980:
	.cfi_startproc
	pushl	%ebp
	.cfi_def_cfa_offset 8
	.cfi_offset 5, -8
	movl	%esp, %ebp
	.cfi_def_cfa_register 5
	subl	$24, %esp
	movl	%ecx, -12(%ebp)
	movl	-12(%ebp), %eax
	movl	%eax, %ecx
	call	__ZNSt6localeD1Ev
	nop
	leave
	.cfi_restore 5
	.cfi_def_cfa 4, 4
	ret
	.cfi_endproc
LFE4980:
	.section	.text$_ZZNKSt7__cxx1113match_resultsIN9__gnu_cxx17__normal_iteratorIPcNS_12basic_stringIcSt11char_traitsIcESaIcEEEEESaINS_9sub_matchIS9_EEEE6formatISt20back_insert_iteratorIS8_EEET_SH_PKcSJ_NSt15regex_constants15match_flag_typeEENKUljE_clEj,"x"
	.linkonce discard
	.align 2
	.globl	__ZZNKSt7__cxx1113match_resultsIN9__gnu_cxx17__normal_iteratorIPcNS_12basic_stringIcSt11char_traitsIcESaIcEEEEESaINS_9sub_matchIS9_EEEE6formatISt20back_insert_iteratorIS8_EEET_SH_PKcSJ_NSt15regex_constants15match_flag_typeEENKUljE_clEj
	.def	__ZZNKSt7__cxx1113match_resultsIN9__gnu_cxx17__normal_iteratorIPcNS_12basic_stringIcSt11char_traitsIcESaIcEEEEESaINS_9sub_matchIS9_EEEE6formatISt20back_insert_iteratorIS8_EEET_SH_PKcSJ_NSt15regex_constants15match_flag_typeEENKUljE_clEj;	.scl	2;	.type	32;	.endef
__ZZNKSt7__cxx1113match_resultsIN9__gnu_cxx17__normal_iteratorIPcNS_12basic_stringIcSt11char_traitsIcESaIcEEEEESaINS_9sub_matchIS9_EEEE6formatISt20back_insert_iteratorIS8_EEET_SH_PKcSJ_NSt15regex_constants15match_flag_typeEENKUljE_clEj:
LFB4981:
	.cfi_startproc
	pushl	%ebp
	.cfi_def_cfa_offset 8
	.cfi_offset 5, -8
	movl	%esp, %ebp
	.cfi_def_cfa_register 5
	pushl	%ebx
	subl	$52, %esp
	.cfi_offset 3, -12
	movl	%ecx, -28(%ebp)
	movl	-28(%ebp), %eax
	movl	(%eax), %eax
	movl	8(%ebp), %edx
	movl	%edx, (%esp)
	movl	%eax, %ecx
	call	__ZNKSt7__cxx1113match_resultsIN9__gnu_cxx17__normal_iteratorIPcNS_12basic_stringIcSt11char_traitsIcESaIcEEEEESaINS_9sub_matchIS9_EEEEixEj
	subl	$4, %esp
	movl	%eax, -12(%ebp)
	movl	-12(%ebp), %eax
	movzbl	8(%eax), %eax
	testb	%al, %al
	je	L452
	movl	-28(%ebp), %eax
	movl	4(%eax), %ebx
	movl	-28(%ebp), %eax
	movl	4(%eax), %eax
	movl	(%eax), %eax
	movl	%eax, 8(%esp)
	movl	-12(%ebp), %eax
	movl	4(%eax), %eax
	movl	%eax, 4(%esp)
	movl	-12(%ebp), %eax
	movl	(%eax), %eax
	movl	%eax, (%esp)
	call	__ZSt4copyIN9__gnu_cxx17__normal_iteratorIPcNSt7__cxx1112basic_stringIcSt11char_traitsIcESaIcEEEEESt20back_insert_iteratorIS8_EET0_T_SD_SC_
	movl	%eax, (%ebx)
L452:
	nop
	movl	-4(%ebp), %ebx
	leave
	.cfi_restore 5
	.cfi_restore 3
	.cfi_def_cfa 4, 4
	ret	$4
	.cfi_endproc
LFE4981:
	.section	.text$_ZZNKSt7__cxx1113match_resultsIN9__gnu_cxx17__normal_iteratorIPcNS_12basic_stringIcSt11char_traitsIcESaIcEEEEESaINS_9sub_matchIS9_EEEE6formatISt20back_insert_iteratorIS8_EEET_SH_PKcSJ_NSt15regex_constants15match_flag_typeEENKUlcE0_clEc,"x"
	.linkonce discard
	.align 2
	.globl	__ZZNKSt7__cxx1113match_resultsIN9__gnu_cxx17__normal_iteratorIPcNS_12basic_stringIcSt11char_traitsIcESaIcEEEEESaINS_9sub_matchIS9_EEEE6formatISt20back_insert_iteratorIS8_EEET_SH_PKcSJ_NSt15regex_constants15match_flag_typeEENKUlcE0_clEc
	.def	__ZZNKSt7__cxx1113match_resultsIN9__gnu_cxx17__normal_iteratorIPcNS_12basic_stringIcSt11char_traitsIcESaIcEEEEESaINS_9sub_matchIS9_EEEE6formatISt20back_insert_iteratorIS8_EEET_SH_PKcSJ_NSt15regex_constants15match_flag_typeEENKUlcE0_clEc;	.scl	2;	.type	32;	.endef
__ZZNKSt7__cxx1113match_resultsIN9__gnu_cxx17__normal_iteratorIPcNS_12basic_stringIcSt11char_traitsIcESaIcEEEEESaINS_9sub_matchIS9_EEEE6formatISt20back_insert_iteratorIS8_EEET_SH_PKcSJ_NSt15regex_constants15match_flag_typeEENKUlcE0_clEc:
LFB4982:
	.cfi_startproc
	pushl	%ebp
	.cfi_def_cfa_offset 8
	.cfi_offset 5, -8
	movl	%esp, %ebp
	.cfi_def_cfa_register 5
	subl	$8, %esp
	movl	%ecx, -4(%ebp)
	movl	8(%ebp), %eax
	movb	%al, -8(%ebp)
	movl	-4(%ebp), %eax
	movl	(%eax), %eax
	movl	(%eax), %eax
	movzbl	(%eax), %eax
	cmpb	-8(%ebp), %al
	jne	L454
	movl	-4(%ebp), %eax
	movl	(%eax), %eax
	movl	(%eax), %edx
	addl	$1, %edx
	movl	%edx, (%eax)
	movl	$1, %eax
	jmp	L455
L454:
	movl	$0, %eax
L455:
	leave
	.cfi_restore 5
	.cfi_def_cfa 4, 4
	ret	$4
	.cfi_endproc
LFE4982:
	.section	.text$_ZNKSt7__cxx1113match_resultsIN9__gnu_cxx17__normal_iteratorIPcNS_12basic_stringIcSt11char_traitsIcESaIcEEEEESaINS_9sub_matchIS9_EEEE6formatISt20back_insert_iteratorIS8_EEET_SH_PKcSJ_NSt15regex_constants15match_flag_typeE,"x"
	.linkonce discard
	.align 2
	.globl	__ZNKSt7__cxx1113match_resultsIN9__gnu_cxx17__normal_iteratorIPcNS_12basic_stringIcSt11char_traitsIcESaIcEEEEESaINS_9sub_matchIS9_EEEE6formatISt20back_insert_iteratorIS8_EEET_SH_PKcSJ_NSt15regex_constants15match_flag_typeE
	.def	__ZNKSt7__cxx1113match_resultsIN9__gnu_cxx17__normal_iteratorIPcNS_12basic_stringIcSt11char_traitsIcESaIcEEEEESaINS_9sub_matchIS9_EEEE6formatISt20back_insert_iteratorIS8_EEET_SH_PKcSJ_NSt15regex_constants15match_flag_typeE;	.scl	2;	.type	32;	.endef
__ZNKSt7__cxx1113match_resultsIN9__gnu_cxx17__normal_iteratorIPcNS_12basic_stringIcSt11char_traitsIcESaIcEEEEESaINS_9sub_matchIS9_EEEE6formatISt20back_insert_iteratorIS8_EEET_SH_PKcSJ_NSt15regex_constants15match_flag_typeE:
LFB4977:
	.cfi_startproc
	.cfi_personality 0,___gxx_personality_v0
	.cfi_lsda 0,LLSDA4977
	pushl	%ebp
	.cfi_def_cfa_offset 8
	.cfi_offset 5, -8
	movl	%esp, %ebp
	.cfi_def_cfa_register 5
	pushl	%ebx
	subl	$116, %esp
	.cfi_offset 3, -12
	movl	%ecx, -92(%ebp)
	leal	-68(%ebp), %eax
	movl	%eax, %ecx
	call	__ZNSt7__cxx1112regex_traitsIcEC1Ev
	leal	-64(%ebp), %eax
	leal	-68(%ebp), %edx
	movl	%edx, (%esp)
	movl	%eax, %ecx
	call	__ZNKSt7__cxx1112regex_traitsIcE6getlocEv
	subl	$4, %esp
	leal	-64(%ebp), %eax
	movl	%eax, (%esp)
LEHB79:
	call	__ZSt9use_facetISt5ctypeIcEERKT_RKSt6locale
LEHE79:
	movl	%eax, -16(%ebp)
	leal	-64(%ebp), %eax
	movl	%eax, %ecx
	call	__ZNSt6localeD1Ev
	movl	-92(%ebp), %eax
	movl	%eax, -76(%ebp)
	leal	8(%ebp), %eax
	movl	%eax, -72(%ebp)
	movl	$256, 4(%esp)
	movl	20(%ebp), %eax
	movl	%eax, (%esp)
	call	__ZNSt15regex_constantsanENS_15match_flag_typeES0_
	testl	%eax, %eax
	setne	%al
	testb	%al, %al
	je	L457
L466:
	movl	12(%ebp), %eax
	cmpl	16(%ebp), %eax
	je	L458
	movl	12(%ebp), %eax
	movzbl	(%eax), %eax
	cmpb	$38, %al
	jne	L459
	leal	-76(%ebp), %eax
	movl	$0, (%esp)
	movl	%eax, %ecx
LEHB80:
	call	__ZZNKSt7__cxx1113match_resultsIN9__gnu_cxx17__normal_iteratorIPcNS_12basic_stringIcSt11char_traitsIcESaIcEEEEESaINS_9sub_matchIS9_EEEE6formatISt20back_insert_iteratorIS8_EEET_SH_PKcSJ_NSt15regex_constants15match_flag_typeEENKUljE_clEj
	subl	$4, %esp
	addl	$1, 12(%ebp)
	jmp	L466
L459:
	movl	12(%ebp), %eax
	movzbl	(%eax), %eax
	cmpb	$92, %al
	jne	L461
	addl	$1, 12(%ebp)
	movl	12(%ebp), %eax
	cmpl	16(%ebp), %eax
	je	L462
	movl	12(%ebp), %eax
	movzbl	(%eax), %eax
	movsbl	%al, %edx
	movl	-16(%ebp), %eax
	movl	%edx, 4(%esp)
	movl	$8, (%esp)
	movl	%eax, %ecx
	call	__ZNKSt5ctypeIcE2isEtc
	subl	$8, %esp
	testb	%al, %al
	je	L462
	movl	$1, %eax
	jmp	L463
L462:
	movl	$0, %eax
L463:
	testb	%al, %al
	je	L464
	movl	12(%ebp), %eax
	leal	1(%eax), %edx
	movl	%edx, 12(%ebp)
	movzbl	(%eax), %eax
	movsbl	%al, %edx
	leal	-68(%ebp), %eax
	movl	$10, 4(%esp)
	movl	%edx, (%esp)
	movl	%eax, %ecx
	call	__ZNKSt7__cxx1112regex_traitsIcE5valueEci
	subl	$8, %esp
	movl	%eax, %edx
	leal	-76(%ebp), %eax
	movl	%edx, (%esp)
	movl	%eax, %ecx
	call	__ZZNKSt7__cxx1113match_resultsIN9__gnu_cxx17__normal_iteratorIPcNS_12basic_stringIcSt11char_traitsIcESaIcEEEEESaINS_9sub_matchIS9_EEEE6formatISt20back_insert_iteratorIS8_EEET_SH_PKcSJ_NSt15regex_constants15match_flag_typeEENKUljE_clEj
	subl	$4, %esp
	jmp	L466
L464:
	movb	$92, -57(%ebp)
	movl	$0, (%esp)
	leal	8(%ebp), %ecx
	call	__ZNSt20back_insert_iteratorINSt7__cxx1112basic_stringIcSt11char_traitsIcESaIcEEEEppEi
	subl	$4, %esp
	movl	%eax, -56(%ebp)
	leal	-56(%ebp), %eax
	movl	%eax, %ecx
	call	__ZNSt20back_insert_iteratorINSt7__cxx1112basic_stringIcSt11char_traitsIcESaIcEEEEdeEv
	movl	%eax, %edx
	leal	-57(%ebp), %eax
	movl	%eax, (%esp)
	movl	%edx, %ecx
	call	__ZNSt20back_insert_iteratorINSt7__cxx1112basic_stringIcSt11char_traitsIcESaIcEEEEaSEOc
	subl	$4, %esp
	jmp	L466
L461:
	movl	12(%ebp), %ebx
	leal	1(%ebx), %eax
	movl	%eax, 12(%ebp)
	movl	$0, (%esp)
	leal	8(%ebp), %ecx
	call	__ZNSt20back_insert_iteratorINSt7__cxx1112basic_stringIcSt11char_traitsIcESaIcEEEEppEi
	subl	$4, %esp
	movl	%eax, -52(%ebp)
	leal	-52(%ebp), %eax
	movl	%eax, %ecx
	call	__ZNSt20back_insert_iteratorINSt7__cxx1112basic_stringIcSt11char_traitsIcESaIcEEEEdeEv
	movl	%ebx, (%esp)
	movl	%eax, %ecx
	call	__ZNSt20back_insert_iteratorINSt7__cxx1112basic_stringIcSt11char_traitsIcESaIcEEEEaSERKc
	subl	$4, %esp
	jmp	L466
L457:
	movb	$36, -46(%ebp)
	leal	-46(%ebp), %eax
	movl	%eax, 8(%esp)
	movl	16(%ebp), %eax
	movl	%eax, 4(%esp)
	movl	12(%ebp), %eax
	movl	%eax, (%esp)
	call	__ZSt4findIPKccET_S2_S2_RKT0_
	movl	%eax, -80(%ebp)
	movl	-80(%ebp), %eax
	cmpl	16(%ebp), %eax
	jne	L467
	movl	8(%ebp), %eax
	movl	%eax, 8(%esp)
	movl	16(%ebp), %eax
	movl	%eax, 4(%esp)
	movl	12(%ebp), %eax
	movl	%eax, (%esp)
	call	__ZSt4copyIPKcSt20back_insert_iteratorINSt7__cxx1112basic_stringIcSt11char_traitsIcESaIcEEEEET0_T_SB_SA_
	movl	%eax, 8(%ebp)
	jmp	L458
L467:
	movl	-80(%ebp), %eax
	movl	8(%ebp), %edx
	movl	%edx, 8(%esp)
	movl	%eax, 4(%esp)
	movl	12(%ebp), %eax
	movl	%eax, (%esp)
	call	__ZSt4copyIPKcSt20back_insert_iteratorINSt7__cxx1112basic_stringIcSt11char_traitsIcESaIcEEEEET0_T_SB_SA_
	movl	%eax, 8(%ebp)
	leal	-80(%ebp), %eax
	movl	%eax, -84(%ebp)
	movl	-80(%ebp), %eax
	addl	$1, %eax
	movl	%eax, -80(%ebp)
	movl	-80(%ebp), %eax
	cmpl	16(%ebp), %eax
	sete	%al
	testb	%al, %al
	je	L468
	movb	$36, -45(%ebp)
	movl	$0, (%esp)
	leal	8(%ebp), %ecx
	call	__ZNSt20back_insert_iteratorINSt7__cxx1112basic_stringIcSt11char_traitsIcESaIcEEEEppEi
	subl	$4, %esp
	movl	%eax, -44(%ebp)
	leal	-44(%ebp), %eax
	movl	%eax, %ecx
	call	__ZNSt20back_insert_iteratorINSt7__cxx1112basic_stringIcSt11char_traitsIcESaIcEEEEdeEv
	movl	%eax, %edx
	leal	-45(%ebp), %eax
	movl	%eax, (%esp)
	movl	%edx, %ecx
	call	__ZNSt20back_insert_iteratorINSt7__cxx1112basic_stringIcSt11char_traitsIcESaIcEEEEaSEOc
	subl	$4, %esp
	jmp	L469
L468:
	leal	-84(%ebp), %eax
	movl	$36, (%esp)
	movl	%eax, %ecx
	call	__ZZNKSt7__cxx1113match_resultsIN9__gnu_cxx17__normal_iteratorIPcNS_12basic_stringIcSt11char_traitsIcESaIcEEEEESaINS_9sub_matchIS9_EEEE6formatISt20back_insert_iteratorIS8_EEET_SH_PKcSJ_NSt15regex_constants15match_flag_typeEENKUlcE0_clEc
	subl	$4, %esp
	testb	%al, %al
	je	L470
	movb	$36, -37(%ebp)
	movl	$0, (%esp)
	leal	8(%ebp), %ecx
	call	__ZNSt20back_insert_iteratorINSt7__cxx1112basic_stringIcSt11char_traitsIcESaIcEEEEppEi
	subl	$4, %esp
	movl	%eax, -36(%ebp)
	leal	-36(%ebp), %eax
	movl	%eax, %ecx
	call	__ZNSt20back_insert_iteratorINSt7__cxx1112basic_stringIcSt11char_traitsIcESaIcEEEEdeEv
	movl	%eax, %edx
	leal	-37(%ebp), %eax
	movl	%eax, (%esp)
	movl	%edx, %ecx
	call	__ZNSt20back_insert_iteratorINSt7__cxx1112basic_stringIcSt11char_traitsIcESaIcEEEEaSEOc
	subl	$4, %esp
	jmp	L469
L470:
	leal	-84(%ebp), %eax
	movl	$38, (%esp)
	movl	%eax, %ecx
	call	__ZZNKSt7__cxx1113match_resultsIN9__gnu_cxx17__normal_iteratorIPcNS_12basic_stringIcSt11char_traitsIcESaIcEEEEESaINS_9sub_matchIS9_EEEE6formatISt20back_insert_iteratorIS8_EEET_SH_PKcSJ_NSt15regex_constants15match_flag_typeEENKUlcE0_clEc
	subl	$4, %esp
	testb	%al, %al
	je	L471
	leal	-76(%ebp), %eax
	movl	$0, (%esp)
	movl	%eax, %ecx
	call	__ZZNKSt7__cxx1113match_resultsIN9__gnu_cxx17__normal_iteratorIPcNS_12basic_stringIcSt11char_traitsIcESaIcEEEEESaINS_9sub_matchIS9_EEEE6formatISt20back_insert_iteratorIS8_EEET_SH_PKcSJ_NSt15regex_constants15match_flag_typeEENKUljE_clEj
	subl	$4, %esp
	jmp	L469
L471:
	leal	-84(%ebp), %eax
	movl	$96, (%esp)
	movl	%eax, %ecx
	call	__ZZNKSt7__cxx1113match_resultsIN9__gnu_cxx17__normal_iteratorIPcNS_12basic_stringIcSt11char_traitsIcESaIcEEEEESaINS_9sub_matchIS9_EEEE6formatISt20back_insert_iteratorIS8_EEET_SH_PKcSJ_NSt15regex_constants15match_flag_typeEENKUlcE0_clEc
	subl	$4, %esp
	testb	%al, %al
	je	L472
	movl	-92(%ebp), %eax
	movl	%eax, %ecx
	call	__ZNKSt7__cxx1113match_resultsIN9__gnu_cxx17__normal_iteratorIPcNS_12basic_stringIcSt11char_traitsIcESaIcEEEEESaINS_9sub_matchIS9_EEEE9_M_prefixEv
	movl	%eax, -20(%ebp)
	movl	-20(%ebp), %eax
	movzbl	8(%eax), %eax
	testb	%al, %al
	je	L469
	movl	8(%ebp), %eax
	movl	%eax, 8(%esp)
	movl	-20(%ebp), %eax
	movl	4(%eax), %eax
	movl	%eax, 4(%esp)
	movl	-20(%ebp), %eax
	movl	(%eax), %eax
	movl	%eax, (%esp)
	call	__ZSt4copyIN9__gnu_cxx17__normal_iteratorIPcNSt7__cxx1112basic_stringIcSt11char_traitsIcESaIcEEEEESt20back_insert_iteratorIS8_EET0_T_SD_SC_
	movl	%eax, 8(%ebp)
	jmp	L469
L472:
	leal	-84(%ebp), %eax
	movl	$39, (%esp)
	movl	%eax, %ecx
	call	__ZZNKSt7__cxx1113match_resultsIN9__gnu_cxx17__normal_iteratorIPcNS_12basic_stringIcSt11char_traitsIcESaIcEEEEESaINS_9sub_matchIS9_EEEE6formatISt20back_insert_iteratorIS8_EEET_SH_PKcSJ_NSt15regex_constants15match_flag_typeEENKUlcE0_clEc
	subl	$4, %esp
	testb	%al, %al
	je	L474
	movl	-92(%ebp), %eax
	movl	%eax, %ecx
	call	__ZNKSt7__cxx1113match_resultsIN9__gnu_cxx17__normal_iteratorIPcNS_12basic_stringIcSt11char_traitsIcESaIcEEEEESaINS_9sub_matchIS9_EEEE9_M_suffixEv
	movl	%eax, -24(%ebp)
	movl	-24(%ebp), %eax
	movzbl	8(%eax), %eax
	testb	%al, %al
	je	L469
	movl	8(%ebp), %eax
	movl	%eax, 8(%esp)
	movl	-24(%ebp), %eax
	movl	4(%eax), %eax
	movl	%eax, 4(%esp)
	movl	-24(%ebp), %eax
	movl	(%eax), %eax
	movl	%eax, (%esp)
	call	__ZSt4copyIN9__gnu_cxx17__normal_iteratorIPcNSt7__cxx1112basic_stringIcSt11char_traitsIcESaIcEEEEESt20back_insert_iteratorIS8_EET0_T_SD_SC_
	movl	%eax, 8(%ebp)
	jmp	L469
L474:
	movl	-80(%ebp), %eax
	movzbl	(%eax), %eax
	movsbl	%al, %edx
	movl	-16(%ebp), %eax
	movl	%edx, 4(%esp)
	movl	$8, (%esp)
	movl	%eax, %ecx
	call	__ZNKSt5ctypeIcE2isEtc
	subl	$8, %esp
	testb	%al, %al
	je	L476
	movl	-80(%ebp), %eax
	movzbl	(%eax), %eax
	movsbl	%al, %edx
	leal	-68(%ebp), %eax
	movl	$10, 4(%esp)
	movl	%edx, (%esp)
	movl	%eax, %ecx
	call	__ZNKSt7__cxx1112regex_traitsIcE5valueEci
	subl	$8, %esp
	movl	%eax, -12(%ebp)
	movl	-80(%ebp), %eax
	addl	$1, %eax
	movl	%eax, -80(%ebp)
	movl	-80(%ebp), %eax
	cmpl	16(%ebp), %eax
	je	L477
	movl	-80(%ebp), %eax
	movzbl	(%eax), %eax
	movsbl	%al, %edx
	movl	-16(%ebp), %eax
	movl	%edx, 4(%esp)
	movl	$8, (%esp)
	movl	%eax, %ecx
	call	__ZNKSt5ctypeIcE2isEtc
	subl	$8, %esp
	testb	%al, %al
	je	L477
	movl	$1, %eax
	jmp	L478
L477:
	movl	$0, %eax
L478:
	testb	%al, %al
	je	L479
	movl	-12(%ebp), %edx
	movl	%edx, %eax
	sall	$2, %eax
	addl	%edx, %eax
	addl	%eax, %eax
	movl	%eax, -12(%ebp)
	movl	-80(%ebp), %eax
	leal	1(%eax), %edx
	movl	%edx, -80(%ebp)
	movzbl	(%eax), %eax
	movsbl	%al, %edx
	leal	-68(%ebp), %eax
	movl	$10, 4(%esp)
	movl	%edx, (%esp)
	movl	%eax, %ecx
	call	__ZNKSt7__cxx1112regex_traitsIcE5valueEci
	subl	$8, %esp
	addl	%eax, -12(%ebp)
L479:
	cmpl	$0, -12(%ebp)
	js	L480
	movl	-92(%ebp), %eax
	movl	%eax, %ecx
	call	__ZNKSt7__cxx1113match_resultsIN9__gnu_cxx17__normal_iteratorIPcNS_12basic_stringIcSt11char_traitsIcESaIcEEEEESaINS_9sub_matchIS9_EEEE4sizeEv
	movl	%eax, %edx
	movl	-12(%ebp), %eax
	cmpl	%eax, %edx
	jbe	L480
	movl	$1, %eax
	jmp	L481
L480:
	movl	$0, %eax
L481:
	testb	%al, %al
	je	L469
	movl	-12(%ebp), %edx
	leal	-76(%ebp), %eax
	movl	%edx, (%esp)
	movl	%eax, %ecx
	call	__ZZNKSt7__cxx1113match_resultsIN9__gnu_cxx17__normal_iteratorIPcNS_12basic_stringIcSt11char_traitsIcESaIcEEEEESaINS_9sub_matchIS9_EEEE6formatISt20back_insert_iteratorIS8_EEET_SH_PKcSJ_NSt15regex_constants15match_flag_typeEENKUljE_clEj
	subl	$4, %esp
	jmp	L469
L476:
	movb	$36, -29(%ebp)
	movl	$0, (%esp)
	leal	8(%ebp), %ecx
	call	__ZNSt20back_insert_iteratorINSt7__cxx1112basic_stringIcSt11char_traitsIcESaIcEEEEppEi
	subl	$4, %esp
	movl	%eax, -28(%ebp)
	leal	-28(%ebp), %eax
	movl	%eax, %ecx
	call	__ZNSt20back_insert_iteratorINSt7__cxx1112basic_stringIcSt11char_traitsIcESaIcEEEEdeEv
	movl	%eax, %edx
	leal	-29(%ebp), %eax
	movl	%eax, (%esp)
	movl	%edx, %ecx
	call	__ZNSt20back_insert_iteratorINSt7__cxx1112basic_stringIcSt11char_traitsIcESaIcEEEEaSEOc
LEHE80:
	subl	$4, %esp
L469:
	movl	-80(%ebp), %eax
	movl	%eax, 12(%ebp)
	jmp	L457
L458:
	movl	8(%ebp), %ebx
	leal	-68(%ebp), %eax
	movl	%eax, %ecx
	call	__ZNSt7__cxx1112regex_traitsIcED1Ev
	movl	%ebx, %eax
	jmp	L488
L486:
	movl	%eax, %ebx
	leal	-64(%ebp), %eax
	movl	%eax, %ecx
	call	__ZNSt6localeD1Ev
	jmp	L485
L487:
	movl	%eax, %ebx
L485:
	leal	-68(%ebp), %eax
	movl	%eax, %ecx
	call	__ZNSt7__cxx1112regex_traitsIcED1Ev
	movl	%ebx, %eax
	movl	%eax, (%esp)
LEHB81:
	call	__Unwind_Resume
LEHE81:
L488:
	movl	-4(%ebp), %ebx
	leave
	.cfi_restore 5
	.cfi_restore 3
	.cfi_def_cfa 4, 4
	ret	$16
	.cfi_endproc
LFE4977:
	.section	.gcc_except_table,"w"
LLSDA4977:
	.byte	0xff
	.byte	0xff
	.byte	0x1
	.uleb128 LLSDACSE4977-LLSDACSB4977
LLSDACSB4977:
	.uleb128 LEHB79-LFB4977
	.uleb128 LEHE79-LEHB79
	.uleb128 L486-LFB4977
	.uleb128 0
	.uleb128 LEHB80-LFB4977
	.uleb128 LEHE80-LEHB80
	.uleb128 L487-LFB4977
	.uleb128 0
	.uleb128 LEHB81-LFB4977
	.uleb128 LEHE81-LEHB81
	.uleb128 0
	.uleb128 0
LLSDACSE4977:
	.section	.text$_ZNKSt7__cxx1113match_resultsIN9__gnu_cxx17__normal_iteratorIPcNS_12basic_stringIcSt11char_traitsIcESaIcEEEEESaINS_9sub_matchIS9_EEEE6formatISt20back_insert_iteratorIS8_EEET_SH_PKcSJ_NSt15regex_constants15match_flag_typeE,"x"
	.linkonce discard
	.section	.text$_ZNKSt7__cxx1113match_resultsIN9__gnu_cxx17__normal_iteratorIPcNS_12basic_stringIcSt11char_traitsIcESaIcEEEEESaINS_9sub_matchIS9_EEEE6suffixEv,"x"
	.linkonce discard
	.align 2
	.globl	__ZNKSt7__cxx1113match_resultsIN9__gnu_cxx17__normal_iteratorIPcNS_12basic_stringIcSt11char_traitsIcESaIcEEEEESaINS_9sub_matchIS9_EEEE6suffixEv
	.def	__ZNKSt7__cxx1113match_resultsIN9__gnu_cxx17__normal_iteratorIPcNS_12basic_stringIcSt11char_traitsIcESaIcEEEEESaINS_9sub_matchIS9_EEEE6suffixEv;	.scl	2;	.type	32;	.endef
__ZNKSt7__cxx1113match_resultsIN9__gnu_cxx17__normal_iteratorIPcNS_12basic_stringIcSt11char_traitsIcESaIcEEEEESaINS_9sub_matchIS9_EEEE6suffixEv:
LFB4983:
	.cfi_startproc
	pushl	%ebp
	.cfi_def_cfa_offset 8
	.cfi_offset 5, -8
	movl	%esp, %ebp
	.cfi_def_cfa_register 5
	subl	$24, %esp
	movl	%ecx, -12(%ebp)
	movl	-12(%ebp), %eax
	movl	%eax, %ecx
	call	__ZNKSt7__cxx1113match_resultsIN9__gnu_cxx17__normal_iteratorIPcNS_12basic_stringIcSt11char_traitsIcESaIcEEEEESaINS_9sub_matchIS9_EEEE5emptyEv
	xorl	$1, %eax
	testb	%al, %al
	je	L490
	movl	-12(%ebp), %eax
	movl	%eax, %ecx
	call	__ZNKSt7__cxx1113match_resultsIN9__gnu_cxx17__normal_iteratorIPcNS_12basic_stringIcSt11char_traitsIcESaIcEEEEESaINS_9sub_matchIS9_EEEE9_M_suffixEv
	jmp	L492
L490:
	movl	-12(%ebp), %eax
	movl	%eax, %ecx
	call	__ZNKSt7__cxx1113match_resultsIN9__gnu_cxx17__normal_iteratorIPcNS_12basic_stringIcSt11char_traitsIcESaIcEEEEESaINS_9sub_matchIS9_EEEE16_M_unmatched_subEv
L492:
	leave
	.cfi_restore 5
	.cfi_def_cfa 4, 4
	ret
	.cfi_endproc
LFE4983:
	.section	.text$_ZNSt4pairIN9__gnu_cxx17__normal_iteratorIPcNSt7__cxx1112basic_stringIcSt11char_traitsIcESaIcEEEEES9_EaSERKSA_,"x"
	.linkonce discard
	.align 2
	.globl	__ZNSt4pairIN9__gnu_cxx17__normal_iteratorIPcNSt7__cxx1112basic_stringIcSt11char_traitsIcESaIcEEEEES9_EaSERKSA_
	.def	__ZNSt4pairIN9__gnu_cxx17__normal_iteratorIPcNSt7__cxx1112basic_stringIcSt11char_traitsIcESaIcEEEEES9_EaSERKSA_;	.scl	2;	.type	32;	.endef
__ZNSt4pairIN9__gnu_cxx17__normal_iteratorIPcNSt7__cxx1112basic_stringIcSt11char_traitsIcESaIcEEEEES9_EaSERKSA_:
LFB4984:
	.cfi_startproc
	pushl	%ebp
	.cfi_def_cfa_offset 8
	.cfi_offset 5, -8
	movl	%esp, %ebp
	.cfi_def_cfa_register 5
	subl	$4, %esp
	movl	%ecx, -4(%ebp)
	movl	-4(%ebp), %eax
	movl	8(%ebp), %edx
	movl	(%edx), %edx
	movl	%edx, (%eax)
	movl	-4(%ebp), %eax
	movl	8(%ebp), %edx
	movl	4(%edx), %edx
	movl	%edx, 4(%eax)
	movl	-4(%ebp), %eax
	leave
	.cfi_restore 5
	.cfi_def_cfa 4, 4
	ret	$4
	.cfi_endproc
LFE4984:
	.section	.text$_ZNSt12_Vector_baseINSt7__cxx1112basic_stringIcSt11char_traitsIcESaIcEEESaIS5_EE12_Vector_implD1Ev,"x"
	.linkonce discard
	.align 2
	.globl	__ZNSt12_Vector_baseINSt7__cxx1112basic_stringIcSt11char_traitsIcESaIcEEESaIS5_EE12_Vector_implD1Ev
	.def	__ZNSt12_Vector_baseINSt7__cxx1112basic_stringIcSt11char_traitsIcESaIcEEESaIS5_EE12_Vector_implD1Ev;	.scl	2;	.type	32;	.endef
__ZNSt12_Vector_baseINSt7__cxx1112basic_stringIcSt11char_traitsIcESaIcEEESaIS5_EE12_Vector_implD1Ev:
LFB4995:
	.cfi_startproc
	pushl	%ebp
	.cfi_def_cfa_offset 8
	.cfi_offset 5, -8
	movl	%esp, %ebp
	.cfi_def_cfa_register 5
	subl	$24, %esp
	movl	%ecx, -12(%ebp)
	movl	-12(%ebp), %eax
	movl	%eax, %ecx
	call	__ZNSaINSt7__cxx1112basic_stringIcSt11char_traitsIcESaIcEEEED2Ev
	nop
	leave
	.cfi_restore 5
	.cfi_def_cfa 4, 4
	ret
	.cfi_endproc
LFE4995:
	.section	.text$_ZNSt12_Vector_baseINSt7__cxx1112basic_stringIcSt11char_traitsIcESaIcEEESaIS5_EEC2Ev,"x"
	.linkonce discard
	.align 2
	.globl	__ZNSt12_Vector_baseINSt7__cxx1112basic_stringIcSt11char_traitsIcESaIcEEESaIS5_EEC2Ev
	.def	__ZNSt12_Vector_baseINSt7__cxx1112basic_stringIcSt11char_traitsIcESaIcEEESaIS5_EEC2Ev;	.scl	2;	.type	32;	.endef
__ZNSt12_Vector_baseINSt7__cxx1112basic_stringIcSt11char_traitsIcESaIcEEESaIS5_EEC2Ev:
LFB4996:
	.cfi_startproc
	pushl	%ebp
	.cfi_def_cfa_offset 8
	.cfi_offset 5, -8
	movl	%esp, %ebp
	.cfi_def_cfa_register 5
	subl	$24, %esp
	movl	%ecx, -12(%ebp)
	movl	-12(%ebp), %eax
	movl	%eax, %ecx
	call	__ZNSt12_Vector_baseINSt7__cxx1112basic_stringIcSt11char_traitsIcESaIcEEESaIS5_EE12_Vector_implC1Ev
	nop
	leave
	.cfi_restore 5
	.cfi_def_cfa 4, 4
	ret
	.cfi_endproc
LFE4996:
	.section	.text$_ZNSt12_Vector_baseINSt7__cxx1112basic_stringIcSt11char_traitsIcESaIcEEESaIS5_EED2Ev,"x"
	.linkonce discard
	.align 2
	.globl	__ZNSt12_Vector_baseINSt7__cxx1112basic_stringIcSt11char_traitsIcESaIcEEESaIS5_EED2Ev
	.def	__ZNSt12_Vector_baseINSt7__cxx1112basic_stringIcSt11char_traitsIcESaIcEEESaIS5_EED2Ev;	.scl	2;	.type	32;	.endef
__ZNSt12_Vector_baseINSt7__cxx1112basic_stringIcSt11char_traitsIcESaIcEEESaIS5_EED2Ev:
LFB4999:
	.cfi_startproc
	.cfi_personality 0,___gxx_personality_v0
	.cfi_lsda 0,LLSDA4999
	pushl	%ebp
	.cfi_def_cfa_offset 8
	.cfi_offset 5, -8
	movl	%esp, %ebp
	.cfi_def_cfa_register 5
	subl	$40, %esp
	movl	%ecx, -12(%ebp)
	movl	-12(%ebp), %eax
	movl	8(%eax), %eax
	movl	%eax, %edx
	movl	-12(%ebp), %eax
	movl	(%eax), %eax
	subl	%eax, %edx
	movl	%edx, %eax
	sarl	$3, %eax
	imull	$-1431655765, %eax, %eax
	movl	%eax, %ecx
	movl	-12(%ebp), %eax
	movl	(%eax), %edx
	movl	-12(%ebp), %eax
	movl	%ecx, 4(%esp)
	movl	%edx, (%esp)
	movl	%eax, %ecx
	call	__ZNSt12_Vector_baseINSt7__cxx1112basic_stringIcSt11char_traitsIcESaIcEEESaIS5_EE13_M_deallocateEPS5_j
	subl	$8, %esp
	movl	-12(%ebp), %eax
	movl	%eax, %ecx
	call	__ZNSt12_Vector_baseINSt7__cxx1112basic_stringIcSt11char_traitsIcESaIcEEESaIS5_EE12_Vector_implD1Ev
	nop
	leave
	.cfi_restore 5
	.cfi_def_cfa 4, 4
	ret
	.cfi_endproc
LFE4999:
	.section	.gcc_except_table,"w"
LLSDA4999:
	.byte	0xff
	.byte	0xff
	.byte	0x1
	.uleb128 LLSDACSE4999-LLSDACSB4999
LLSDACSB4999:
LLSDACSE4999:
	.section	.text$_ZNSt12_Vector_baseINSt7__cxx1112basic_stringIcSt11char_traitsIcESaIcEEESaIS5_EED2Ev,"x"
	.linkonce discard
	.section	.text$_ZNSt12_Vector_baseINSt7__cxx1112basic_stringIcSt11char_traitsIcESaIcEEESaIS5_EE19_M_get_Tp_allocatorEv,"x"
	.linkonce discard
	.align 2
	.globl	__ZNSt12_Vector_baseINSt7__cxx1112basic_stringIcSt11char_traitsIcESaIcEEESaIS5_EE19_M_get_Tp_allocatorEv
	.def	__ZNSt12_Vector_baseINSt7__cxx1112basic_stringIcSt11char_traitsIcESaIcEEESaIS5_EE19_M_get_Tp_allocatorEv;	.scl	2;	.type	32;	.endef
__ZNSt12_Vector_baseINSt7__cxx1112basic_stringIcSt11char_traitsIcESaIcEEESaIS5_EE19_M_get_Tp_allocatorEv:
LFB5001:
	.cfi_startproc
	pushl	%ebp
	.cfi_def_cfa_offset 8
	.cfi_offset 5, -8
	movl	%esp, %ebp
	.cfi_def_cfa_register 5
	subl	$4, %esp
	movl	%ecx, -4(%ebp)
	movl	-4(%ebp), %eax
	leave
	.cfi_restore 5
	.cfi_def_cfa 4, 4
	ret
	.cfi_endproc
LFE5001:
	.section	.text$_ZSt8_DestroyIPNSt7__cxx1112basic_stringIcSt11char_traitsIcESaIcEEES5_EvT_S7_RSaIT0_E,"x"
	.linkonce discard
	.globl	__ZSt8_DestroyIPNSt7__cxx1112basic_stringIcSt11char_traitsIcESaIcEEES5_EvT_S7_RSaIT0_E
	.def	__ZSt8_DestroyIPNSt7__cxx1112basic_stringIcSt11char_traitsIcESaIcEEES5_EvT_S7_RSaIT0_E;	.scl	2;	.type	32;	.endef
__ZSt8_DestroyIPNSt7__cxx1112basic_stringIcSt11char_traitsIcESaIcEEES5_EvT_S7_RSaIT0_E:
LFB5002:
	.cfi_startproc
	pushl	%ebp
	.cfi_def_cfa_offset 8
	.cfi_offset 5, -8
	movl	%esp, %ebp
	.cfi_def_cfa_register 5
	subl	$24, %esp
	movl	12(%ebp), %eax
	movl	%eax, 4(%esp)
	movl	8(%ebp), %eax
	movl	%eax, (%esp)
	call	__ZSt8_DestroyIPNSt7__cxx1112basic_stringIcSt11char_traitsIcESaIcEEEEvT_S7_
	nop
	leave
	.cfi_restore 5
	.cfi_def_cfa 4, 4
	ret
	.cfi_endproc
LFE5002:
	.section	.text$_ZSteqIcSt11char_traitsIcESaIcEEbRKNSt7__cxx1112basic_stringIT_T0_T1_EEPKS5_,"x"
	.linkonce discard
	.globl	__ZSteqIcSt11char_traitsIcESaIcEEbRKNSt7__cxx1112basic_stringIT_T0_T1_EEPKS5_
	.def	__ZSteqIcSt11char_traitsIcESaIcEEbRKNSt7__cxx1112basic_stringIT_T0_T1_EEPKS5_;	.scl	2;	.type	32;	.endef
__ZSteqIcSt11char_traitsIcESaIcEEbRKNSt7__cxx1112basic_stringIT_T0_T1_EEPKS5_:
LFB5003:
	.cfi_startproc
	pushl	%ebp
	.cfi_def_cfa_offset 8
	.cfi_offset 5, -8
	movl	%esp, %ebp
	.cfi_def_cfa_register 5
	subl	$24, %esp
	movl	12(%ebp), %eax
	movl	%eax, (%esp)
	movl	8(%ebp), %ecx
	call	__ZNKSt7__cxx1112basic_stringIcSt11char_traitsIcESaIcEE7compareEPKc
	subl	$4, %esp
	testl	%eax, %eax
	sete	%al
	leave
	.cfi_restore 5
	.cfi_def_cfa 4, 4
	ret
	.cfi_endproc
LFE5003:
	.section	.text$_ZN9__gnu_cxx17__normal_iteratorIPNSt7__cxx1112basic_stringIcSt11char_traitsIcESaIcEEESt6vectorIS6_SaIS6_EEEC1ERKS7_,"x"
	.linkonce discard
	.align 2
	.globl	__ZN9__gnu_cxx17__normal_iteratorIPNSt7__cxx1112basic_stringIcSt11char_traitsIcESaIcEEESt6vectorIS6_SaIS6_EEEC1ERKS7_
	.def	__ZN9__gnu_cxx17__normal_iteratorIPNSt7__cxx1112basic_stringIcSt11char_traitsIcESaIcEEESt6vectorIS6_SaIS6_EEEC1ERKS7_;	.scl	2;	.type	32;	.endef
__ZN9__gnu_cxx17__normal_iteratorIPNSt7__cxx1112basic_stringIcSt11char_traitsIcESaIcEEESt6vectorIS6_SaIS6_EEEC1ERKS7_:
LFB5006:
	.cfi_startproc
	pushl	%ebp
	.cfi_def_cfa_offset 8
	.cfi_offset 5, -8
	movl	%esp, %ebp
	.cfi_def_cfa_register 5
	subl	$4, %esp
	movl	%ecx, -4(%ebp)
	movl	8(%ebp), %eax
	movl	(%eax), %edx
	movl	-4(%ebp), %eax
	movl	%edx, (%eax)
	nop
	leave
	.cfi_restore 5
	.cfi_def_cfa 4, 4
	ret	$4
	.cfi_endproc
LFE5006:
	.section	.text$_ZNK9__gnu_cxx17__normal_iteratorIPNSt7__cxx1112basic_stringIcSt11char_traitsIcESaIcEEESt6vectorIS6_SaIS6_EEE4baseEv,"x"
	.linkonce discard
	.align 2
	.globl	__ZNK9__gnu_cxx17__normal_iteratorIPNSt7__cxx1112basic_stringIcSt11char_traitsIcESaIcEEESt6vectorIS6_SaIS6_EEE4baseEv
	.def	__ZNK9__gnu_cxx17__normal_iteratorIPNSt7__cxx1112basic_stringIcSt11char_traitsIcESaIcEEESt6vectorIS6_SaIS6_EEE4baseEv;	.scl	2;	.type	32;	.endef
__ZNK9__gnu_cxx17__normal_iteratorIPNSt7__cxx1112basic_stringIcSt11char_traitsIcESaIcEEESt6vectorIS6_SaIS6_EEE4baseEv:
LFB5007:
	.cfi_startproc
	pushl	%ebp
	.cfi_def_cfa_offset 8
	.cfi_offset 5, -8
	movl	%esp, %ebp
	.cfi_def_cfa_register 5
	subl	$4, %esp
	movl	%ecx, -4(%ebp)
	movl	-4(%ebp), %eax
	leave
	.cfi_restore 5
	.cfi_def_cfa 4, 4
	ret
	.cfi_endproc
LFE5007:
	.section	.text$_ZNSt6vectorINSt7__cxx1112basic_stringIcSt11char_traitsIcESaIcEEESaIS5_EE5beginEv,"x"
	.linkonce discard
	.align 2
	.globl	__ZNSt6vectorINSt7__cxx1112basic_stringIcSt11char_traitsIcESaIcEEESaIS5_EE5beginEv
	.def	__ZNSt6vectorINSt7__cxx1112basic_stringIcSt11char_traitsIcESaIcEEESaIS5_EE5beginEv;	.scl	2;	.type	32;	.endef
__ZNSt6vectorINSt7__cxx1112basic_stringIcSt11char_traitsIcESaIcEEESaIS5_EE5beginEv:
LFB5008:
	.cfi_startproc
	pushl	%ebp
	.cfi_def_cfa_offset 8
	.cfi_offset 5, -8
	movl	%esp, %ebp
	.cfi_def_cfa_register 5
	subl	$56, %esp
	movl	%ecx, -28(%ebp)
	movl	-28(%ebp), %edx
	leal	-12(%ebp), %eax
	movl	%edx, (%esp)
	movl	%eax, %ecx
	call	__ZN9__gnu_cxx17__normal_iteratorIPNSt7__cxx1112basic_stringIcSt11char_traitsIcESaIcEEESt6vectorIS6_SaIS6_EEEC1ERKS7_
	subl	$4, %esp
	movl	-12(%ebp), %eax
	leave
	.cfi_restore 5
	.cfi_def_cfa 4, 4
	ret
	.cfi_endproc
LFE5008:
	.section	.text$_ZN9__gnu_cxxmiIPKNSt7__cxx1112basic_stringIcSt11char_traitsIcESaIcEEEPS6_St6vectorIS6_SaIS6_EEEEDTmicldtfp_4baseEcldtfp0_4baseEERKNS_17__normal_iteratorIT_T1_EERKNSE_IT0_SG_EE,"x"
	.linkonce discard
	.globl	__ZN9__gnu_cxxmiIPKNSt7__cxx1112basic_stringIcSt11char_traitsIcESaIcEEEPS6_St6vectorIS6_SaIS6_EEEEDTmicldtfp_4baseEcldtfp0_4baseEERKNS_17__normal_iteratorIT_T1_EERKNSE_IT0_SG_EE
	.def	__ZN9__gnu_cxxmiIPKNSt7__cxx1112basic_stringIcSt11char_traitsIcESaIcEEEPS6_St6vectorIS6_SaIS6_EEEEDTmicldtfp_4baseEcldtfp0_4baseEERKNS_17__normal_iteratorIT_T1_EERKNSE_IT0_SG_EE;	.scl	2;	.type	32;	.endef
__ZN9__gnu_cxxmiIPKNSt7__cxx1112basic_stringIcSt11char_traitsIcESaIcEEEPS6_St6vectorIS6_SaIS6_EEEEDTmicldtfp_4baseEcldtfp0_4baseEERKNS_17__normal_iteratorIT_T1_EERKNSE_IT0_SG_EE:
LFB5009:
	.cfi_startproc
	pushl	%ebp
	.cfi_def_cfa_offset 8
	.cfi_offset 5, -8
	movl	%esp, %ebp
	.cfi_def_cfa_register 5
	pushl	%ebx
	subl	$4, %esp
	.cfi_offset 3, -12
	movl	8(%ebp), %ecx
	call	__ZNK9__gnu_cxx17__normal_iteratorIPKNSt7__cxx1112basic_stringIcSt11char_traitsIcESaIcEEESt6vectorIS6_SaIS6_EEE4baseEv
	movl	(%eax), %eax
	movl	%eax, %ebx
	movl	12(%ebp), %eax
	movl	%eax, %ecx
	call	__ZNK9__gnu_cxx17__normal_iteratorIPNSt7__cxx1112basic_stringIcSt11char_traitsIcESaIcEEESt6vectorIS6_SaIS6_EEE4baseEv
	movl	(%eax), %eax
	subl	%eax, %ebx
	movl	%ebx, %eax
	sarl	$3, %eax
	imull	$-1431655765, %eax, %eax
	addl	$4, %esp
	popl	%ebx
	.cfi_restore 3
	popl	%ebp
	.cfi_restore 5
	.cfi_def_cfa 4, 4
	ret
	.cfi_endproc
LFE5009:
	.section	.text$_ZN9__gnu_cxxeqIPKNSt7__cxx1112basic_stringIcSt11char_traitsIcESaIcEEEPS6_St6vectorIS6_SaIS6_EEEEbRKNS_17__normal_iteratorIT_T1_EERKNSD_IT0_SF_EE,"x"
	.linkonce discard
	.globl	__ZN9__gnu_cxxeqIPKNSt7__cxx1112basic_stringIcSt11char_traitsIcESaIcEEEPS6_St6vectorIS6_SaIS6_EEEEbRKNS_17__normal_iteratorIT_T1_EERKNSD_IT0_SF_EE
	.def	__ZN9__gnu_cxxeqIPKNSt7__cxx1112basic_stringIcSt11char_traitsIcESaIcEEEPS6_St6vectorIS6_SaIS6_EEEEbRKNS_17__normal_iteratorIT_T1_EERKNSD_IT0_SF_EE;	.scl	2;	.type	32;	.endef
__ZN9__gnu_cxxeqIPKNSt7__cxx1112basic_stringIcSt11char_traitsIcESaIcEEEPS6_St6vectorIS6_SaIS6_EEEEbRKNS_17__normal_iteratorIT_T1_EERKNSD_IT0_SF_EE:
LFB5010:
	.cfi_startproc
	pushl	%ebp
	.cfi_def_cfa_offset 8
	.cfi_offset 5, -8
	movl	%esp, %ebp
	.cfi_def_cfa_register 5
	pushl	%ebx
	subl	$4, %esp
	.cfi_offset 3, -12
	movl	8(%ebp), %ecx
	call	__ZNK9__gnu_cxx17__normal_iteratorIPKNSt7__cxx1112basic_stringIcSt11char_traitsIcESaIcEEESt6vectorIS6_SaIS6_EEE4baseEv
	movl	(%eax), %ebx
	movl	12(%ebp), %eax
	movl	%eax, %ecx
	call	__ZNK9__gnu_cxx17__normal_iteratorIPNSt7__cxx1112basic_stringIcSt11char_traitsIcESaIcEEESt6vectorIS6_SaIS6_EEE4baseEv
	movl	(%eax), %eax
	cmpl	%eax, %ebx
	sete	%al
	addl	$4, %esp
	popl	%ebx
	.cfi_restore 3
	popl	%ebp
	.cfi_restore 5
	.cfi_def_cfa 4, 4
	ret
	.cfi_endproc
LFE5010:
	.section	.text$_ZSt7forwardIRKNSt7__cxx1112basic_stringIcSt11char_traitsIcESaIcEEEEOT_RNSt16remove_referenceIS8_E4typeE,"x"
	.linkonce discard
	.globl	__ZSt7forwardIRKNSt7__cxx1112basic_stringIcSt11char_traitsIcESaIcEEEEOT_RNSt16remove_referenceIS8_E4typeE
	.def	__ZSt7forwardIRKNSt7__cxx1112basic_stringIcSt11char_traitsIcESaIcEEEEOT_RNSt16remove_referenceIS8_E4typeE;	.scl	2;	.type	32;	.endef
__ZSt7forwardIRKNSt7__cxx1112basic_stringIcSt11char_traitsIcESaIcEEEEOT_RNSt16remove_referenceIS8_E4typeE:
LFB5012:
	.cfi_startproc
	pushl	%ebp
	.cfi_def_cfa_offset 8
	.cfi_offset 5, -8
	movl	%esp, %ebp
	.cfi_def_cfa_register 5
	movl	8(%ebp), %eax
	popl	%ebp
	.cfi_restore 5
	.cfi_def_cfa 4, 4
	ret
	.cfi_endproc
LFE5012:
	.section	.text$_ZNSt16allocator_traitsISaINSt7__cxx1112basic_stringIcSt11char_traitsIcESaIcEEEEE9constructIS5_JRKS5_EEEvRS6_PT_DpOT0_,"x"
	.linkonce discard
	.globl	__ZNSt16allocator_traitsISaINSt7__cxx1112basic_stringIcSt11char_traitsIcESaIcEEEEE9constructIS5_JRKS5_EEEvRS6_PT_DpOT0_
	.def	__ZNSt16allocator_traitsISaINSt7__cxx1112basic_stringIcSt11char_traitsIcESaIcEEEEE9constructIS5_JRKS5_EEEvRS6_PT_DpOT0_;	.scl	2;	.type	32;	.endef
__ZNSt16allocator_traitsISaINSt7__cxx1112basic_stringIcSt11char_traitsIcESaIcEEEEE9constructIS5_JRKS5_EEEvRS6_PT_DpOT0_:
LFB5011:
	.cfi_startproc
	pushl	%ebp
	.cfi_def_cfa_offset 8
	.cfi_offset 5, -8
	movl	%esp, %ebp
	.cfi_def_cfa_register 5
	subl	$24, %esp
	movl	16(%ebp), %eax
	movl	%eax, (%esp)
	call	__ZSt7forwardIRKNSt7__cxx1112basic_stringIcSt11char_traitsIcESaIcEEEEOT_RNSt16remove_referenceIS8_E4typeE
	movl	%eax, 4(%esp)
	movl	12(%ebp), %eax
	movl	%eax, (%esp)
	movl	8(%ebp), %ecx
	call	__ZN9__gnu_cxx13new_allocatorINSt7__cxx1112basic_stringIcSt11char_traitsIcESaIcEEEE9constructIS6_JRKS6_EEEvPT_DpOT0_
	subl	$8, %esp
	nop
	leave
	.cfi_restore 5
	.cfi_def_cfa 4, 4
	ret
	.cfi_endproc
LFE5011:
	.section	.text$_ZNKSt6vectorINSt7__cxx1112basic_stringIcSt11char_traitsIcESaIcEEESaIS5_EE6cbeginEv,"x"
	.linkonce discard
	.align 2
	.globl	__ZNKSt6vectorINSt7__cxx1112basic_stringIcSt11char_traitsIcESaIcEEESaIS5_EE6cbeginEv
	.def	__ZNKSt6vectorINSt7__cxx1112basic_stringIcSt11char_traitsIcESaIcEEESaIS5_EE6cbeginEv;	.scl	2;	.type	32;	.endef
__ZNKSt6vectorINSt7__cxx1112basic_stringIcSt11char_traitsIcESaIcEEESaIS5_EE6cbeginEv:
LFB5013:
	.cfi_startproc
	pushl	%ebp
	.cfi_def_cfa_offset 8
	.cfi_offset 5, -8
	movl	%esp, %ebp
	.cfi_def_cfa_register 5
	subl	$56, %esp
	movl	%ecx, -28(%ebp)
	movl	-28(%ebp), %eax
	movl	(%eax), %eax
	movl	%eax, -12(%ebp)
	leal	-16(%ebp), %eax
	leal	-12(%ebp), %edx
	movl	%edx, (%esp)
	movl	%eax, %ecx
	call	__ZN9__gnu_cxx17__normal_iteratorIPKNSt7__cxx1112basic_stringIcSt11char_traitsIcESaIcEEESt6vectorIS6_SaIS6_EEEC1ERKS8_
	subl	$4, %esp
	movl	-16(%ebp), %eax
	leave
	.cfi_restore 5
	.cfi_def_cfa 4, 4
	ret
	.cfi_endproc
LFE5013:
	.section	.text$_ZN9__gnu_cxxmiIPKNSt7__cxx1112basic_stringIcSt11char_traitsIcESaIcEEESt6vectorIS6_SaIS6_EEEENS_17__normal_iteratorIT_T0_E15difference_typeERKSF_SI_,"x"
	.linkonce discard
	.globl	__ZN9__gnu_cxxmiIPKNSt7__cxx1112basic_stringIcSt11char_traitsIcESaIcEEESt6vectorIS6_SaIS6_EEEENS_17__normal_iteratorIT_T0_E15difference_typeERKSF_SI_
	.def	__ZN9__gnu_cxxmiIPKNSt7__cxx1112basic_stringIcSt11char_traitsIcESaIcEEESt6vectorIS6_SaIS6_EEEENS_17__normal_iteratorIT_T0_E15difference_typeERKSF_SI_;	.scl	2;	.type	32;	.endef
__ZN9__gnu_cxxmiIPKNSt7__cxx1112basic_stringIcSt11char_traitsIcESaIcEEESt6vectorIS6_SaIS6_EEEENS_17__normal_iteratorIT_T0_E15difference_typeERKSF_SI_:
LFB5014:
	.cfi_startproc
	pushl	%ebp
	.cfi_def_cfa_offset 8
	.cfi_offset 5, -8
	movl	%esp, %ebp
	.cfi_def_cfa_register 5
	pushl	%ebx
	subl	$4, %esp
	.cfi_offset 3, -12
	movl	8(%ebp), %ecx
	call	__ZNK9__gnu_cxx17__normal_iteratorIPKNSt7__cxx1112basic_stringIcSt11char_traitsIcESaIcEEESt6vectorIS6_SaIS6_EEE4baseEv
	movl	(%eax), %eax
	movl	%eax, %ebx
	movl	12(%ebp), %eax
	movl	%eax, %ecx
	call	__ZNK9__gnu_cxx17__normal_iteratorIPKNSt7__cxx1112basic_stringIcSt11char_traitsIcESaIcEEESt6vectorIS6_SaIS6_EEE4baseEv
	movl	(%eax), %eax
	subl	%eax, %ebx
	movl	%ebx, %eax
	sarl	$3, %eax
	imull	$-1431655765, %eax, %eax
	addl	$4, %esp
	popl	%ebx
	.cfi_restore 3
	popl	%ebp
	.cfi_restore 5
	.cfi_def_cfa 4, 4
	ret
	.cfi_endproc
LFE5014:
	.section	.text$_ZNK9__gnu_cxx17__normal_iteratorIPNSt7__cxx1112basic_stringIcSt11char_traitsIcESaIcEEESt6vectorIS6_SaIS6_EEEplEi,"x"
	.linkonce discard
	.align 2
	.globl	__ZNK9__gnu_cxx17__normal_iteratorIPNSt7__cxx1112basic_stringIcSt11char_traitsIcESaIcEEESt6vectorIS6_SaIS6_EEEplEi
	.def	__ZNK9__gnu_cxx17__normal_iteratorIPNSt7__cxx1112basic_stringIcSt11char_traitsIcESaIcEEESt6vectorIS6_SaIS6_EEEplEi;	.scl	2;	.type	32;	.endef
__ZNK9__gnu_cxx17__normal_iteratorIPNSt7__cxx1112basic_stringIcSt11char_traitsIcESaIcEEESt6vectorIS6_SaIS6_EEEplEi:
LFB5015:
	.cfi_startproc
	pushl	%ebp
	.cfi_def_cfa_offset 8
	.cfi_offset 5, -8
	movl	%esp, %ebp
	.cfi_def_cfa_register 5
	subl	$56, %esp
	movl	%ecx, -28(%ebp)
	movl	-28(%ebp), %eax
	movl	(%eax), %ecx
	movl	8(%ebp), %edx
	movl	%edx, %eax
	addl	%eax, %eax
	addl	%edx, %eax
	sall	$3, %eax
	addl	%ecx, %eax
	movl	%eax, -12(%ebp)
	leal	-16(%ebp), %eax
	leal	-12(%ebp), %edx
	movl	%edx, (%esp)
	movl	%eax, %ecx
	call	__ZN9__gnu_cxx17__normal_iteratorIPNSt7__cxx1112basic_stringIcSt11char_traitsIcESaIcEEESt6vectorIS6_SaIS6_EEEC1ERKS7_
	subl	$4, %esp
	movl	-16(%ebp), %eax
	leave
	.cfi_restore 5
	.cfi_def_cfa 4, 4
	ret	$4
	.cfi_endproc
LFE5015:
	.section	.text$_ZSt7forwardINSt7__cxx1112basic_stringIcSt11char_traitsIcESaIcEEEEOT_RNSt16remove_referenceIS6_E4typeE,"x"
	.linkonce discard
	.globl	__ZSt7forwardINSt7__cxx1112basic_stringIcSt11char_traitsIcESaIcEEEEOT_RNSt16remove_referenceIS6_E4typeE
	.def	__ZSt7forwardINSt7__cxx1112basic_stringIcSt11char_traitsIcESaIcEEEEOT_RNSt16remove_referenceIS6_E4typeE;	.scl	2;	.type	32;	.endef
__ZSt7forwardINSt7__cxx1112basic_stringIcSt11char_traitsIcESaIcEEEEOT_RNSt16remove_referenceIS6_E4typeE:
LFB5017:
	.cfi_startproc
	pushl	%ebp
	.cfi_def_cfa_offset 8
	.cfi_offset 5, -8
	movl	%esp, %ebp
	.cfi_def_cfa_register 5
	movl	8(%ebp), %eax
	popl	%ebp
	.cfi_restore 5
	.cfi_def_cfa 4, 4
	ret
	.cfi_endproc
LFE5017:
	.section .rdata,"dr"
LC22:
	.ascii "vector::_M_insert_aux\0"
	.section	.text$_ZNSt6vectorINSt7__cxx1112basic_stringIcSt11char_traitsIcESaIcEEESaIS5_EE13_M_insert_auxIJS5_EEEvN9__gnu_cxx17__normal_iteratorIPS5_S7_EEDpOT_,"x"
	.linkonce discard
	.align 2
	.globl	__ZNSt6vectorINSt7__cxx1112basic_stringIcSt11char_traitsIcESaIcEEESaIS5_EE13_M_insert_auxIJS5_EEEvN9__gnu_cxx17__normal_iteratorIPS5_S7_EEDpOT_
	.def	__ZNSt6vectorINSt7__cxx1112basic_stringIcSt11char_traitsIcESaIcEEESaIS5_EE13_M_insert_auxIJS5_EEEvN9__gnu_cxx17__normal_iteratorIPS5_S7_EEDpOT_;	.scl	2;	.type	32;	.endef
__ZNSt6vectorINSt7__cxx1112basic_stringIcSt11char_traitsIcESaIcEEESaIS5_EE13_M_insert_auxIJS5_EEEvN9__gnu_cxx17__normal_iteratorIPS5_S7_EEDpOT_:
LFB5016:
	.cfi_startproc
	.cfi_personality 0,___gxx_personality_v0
	.cfi_lsda 0,LLSDA5016
	pushl	%ebp
	.cfi_def_cfa_offset 8
	.cfi_offset 5, -8
	movl	%esp, %ebp
	.cfi_def_cfa_register 5
	pushl	%esi
	pushl	%ebx
	subl	$80, %esp
	.cfi_offset 6, -12
	.cfi_offset 3, -16
	movl	%ecx, -60(%ebp)
	movl	-60(%ebp), %eax
	movl	4(%eax), %edx
	movl	-60(%ebp), %eax
	movl	8(%eax), %eax
	cmpl	%eax, %edx
	je	L524
	movl	-60(%ebp), %eax
	movl	4(%eax), %eax
	subl	$24, %eax
	movl	%eax, (%esp)
	call	__ZSt4moveIRNSt7__cxx1112basic_stringIcSt11char_traitsIcESaIcEEEEONSt16remove_referenceIT_E4typeEOS8_
	movl	%eax, %ecx
	movl	-60(%ebp), %eax
	movl	4(%eax), %edx
	movl	-60(%ebp), %eax
	movl	%ecx, 8(%esp)
	movl	%edx, 4(%esp)
	movl	%eax, (%esp)
LEHB82:
	call	__ZNSt16allocator_traitsISaINSt7__cxx1112basic_stringIcSt11char_traitsIcESaIcEEEEE9constructIS5_JS5_EEEvRS6_PT_DpOT0_
	movl	-60(%ebp), %eax
	movl	4(%eax), %eax
	leal	24(%eax), %edx
	movl	-60(%ebp), %eax
	movl	%edx, 4(%eax)
	movl	-60(%ebp), %eax
	movl	4(%eax), %eax
	leal	-24(%eax), %esi
	movl	-60(%ebp), %eax
	movl	4(%eax), %eax
	leal	-48(%eax), %ebx
	leal	8(%ebp), %ecx
	call	__ZNK9__gnu_cxx17__normal_iteratorIPNSt7__cxx1112basic_stringIcSt11char_traitsIcESaIcEEESt6vectorIS6_SaIS6_EEE4baseEv
	movl	(%eax), %eax
	movl	%esi, 8(%esp)
	movl	%ebx, 4(%esp)
	movl	%eax, (%esp)
	call	__ZSt13move_backwardIPNSt7__cxx1112basic_stringIcSt11char_traitsIcESaIcEEES6_ET0_T_S8_S7_
	movl	12(%ebp), %eax
	movl	%eax, (%esp)
	call	__ZSt7forwardINSt7__cxx1112basic_stringIcSt11char_traitsIcESaIcEEEEOT_RNSt16remove_referenceIS6_E4typeE
	movl	%eax, %edx
	leal	-52(%ebp), %eax
	movl	%edx, (%esp)
	movl	%eax, %ecx
	call	__ZNSt7__cxx1112basic_stringIcSt11char_traitsIcESaIcEEC1EOS4_
	subl	$4, %esp
	leal	8(%ebp), %ecx
	call	__ZNK9__gnu_cxx17__normal_iteratorIPNSt7__cxx1112basic_stringIcSt11char_traitsIcESaIcEEESt6vectorIS6_SaIS6_EEEdeEv
	movl	%eax, %edx
	leal	-52(%ebp), %eax
	movl	%eax, (%esp)
	movl	%edx, %ecx
	call	__ZNSt7__cxx1112basic_stringIcSt11char_traitsIcESaIcEEaSEOS4_
	subl	$4, %esp
	leal	-52(%ebp), %eax
	movl	%eax, %ecx
	call	__ZNSt7__cxx1112basic_stringIcSt11char_traitsIcESaIcEED1Ev
	jmp	L523
L524:
	movl	-60(%ebp), %eax
	movl	$LC22, 4(%esp)
	movl	$1, (%esp)
	movl	%eax, %ecx
	call	__ZNKSt6vectorINSt7__cxx1112basic_stringIcSt11char_traitsIcESaIcEEESaIS5_EE12_M_check_lenEjPKc
	subl	$8, %esp
	movl	%eax, -16(%ebp)
	movl	-60(%ebp), %eax
	movl	%eax, %ecx
	call	__ZNSt6vectorINSt7__cxx1112basic_stringIcSt11char_traitsIcESaIcEEESaIS5_EE5beginEv
	movl	%eax, -28(%ebp)
	leal	-28(%ebp), %eax
	movl	%eax, 4(%esp)
	leal	8(%ebp), %eax
	movl	%eax, (%esp)
	call	__ZN9__gnu_cxxmiIPNSt7__cxx1112basic_stringIcSt11char_traitsIcESaIcEEESt6vectorIS6_SaIS6_EEEENS_17__normal_iteratorIT_T0_E15difference_typeERKSE_SH_
	movl	%eax, -20(%ebp)
	movl	-60(%ebp), %eax
	movl	-16(%ebp), %edx
	movl	%edx, (%esp)
	movl	%eax, %ecx
	call	__ZNSt12_Vector_baseINSt7__cxx1112basic_stringIcSt11char_traitsIcESaIcEEESaIS5_EE11_M_allocateEj
LEHE82:
	subl	$4, %esp
	movl	%eax, -24(%ebp)
	movl	-24(%ebp), %eax
	movl	%eax, -12(%ebp)
	movl	12(%ebp), %eax
	movl	%eax, (%esp)
	call	__ZSt7forwardINSt7__cxx1112basic_stringIcSt11char_traitsIcESaIcEEEEOT_RNSt16remove_referenceIS6_E4typeE
	movl	%eax, %ecx
	movl	-20(%ebp), %edx
	movl	%edx, %eax
	addl	%eax, %eax
	addl	%edx, %eax
	sall	$3, %eax
	movl	%eax, %edx
	movl	-24(%ebp), %eax
	addl	%eax, %edx
	movl	-60(%ebp), %eax
	movl	%ecx, 8(%esp)
	movl	%edx, 4(%esp)
	movl	%eax, (%esp)
LEHB83:
	call	__ZNSt16allocator_traitsISaINSt7__cxx1112basic_stringIcSt11char_traitsIcESaIcEEEEE9constructIS5_JS5_EEEvRS6_PT_DpOT0_
	movl	$0, -12(%ebp)
	movl	-60(%ebp), %eax
	movl	%eax, %ecx
	call	__ZNSt12_Vector_baseINSt7__cxx1112basic_stringIcSt11char_traitsIcESaIcEEESaIS5_EE19_M_get_Tp_allocatorEv
	movl	%eax, %ebx
	leal	8(%ebp), %ecx
	call	__ZNK9__gnu_cxx17__normal_iteratorIPNSt7__cxx1112basic_stringIcSt11char_traitsIcESaIcEEESt6vectorIS6_SaIS6_EEE4baseEv
	movl	(%eax), %edx
	movl	-60(%ebp), %eax
	movl	(%eax), %eax
	movl	%ebx, 12(%esp)
	movl	-24(%ebp), %ecx
	movl	%ecx, 8(%esp)
	movl	%edx, 4(%esp)
	movl	%eax, (%esp)
	call	__ZSt34__uninitialized_move_if_noexcept_aIPNSt7__cxx1112basic_stringIcSt11char_traitsIcESaIcEEES6_SaIS5_EET0_T_S9_S8_RT1_
	movl	%eax, -12(%ebp)
	addl	$24, -12(%ebp)
	movl	-60(%ebp), %eax
	movl	%eax, %ecx
	call	__ZNSt12_Vector_baseINSt7__cxx1112basic_stringIcSt11char_traitsIcESaIcEEESaIS5_EE19_M_get_Tp_allocatorEv
	movl	%eax, %esi
	movl	-60(%ebp), %eax
	movl	4(%eax), %ebx
	leal	8(%ebp), %ecx
	call	__ZNK9__gnu_cxx17__normal_iteratorIPNSt7__cxx1112basic_stringIcSt11char_traitsIcESaIcEEESt6vectorIS6_SaIS6_EEE4baseEv
	movl	(%eax), %eax
	movl	%esi, 12(%esp)
	movl	-12(%ebp), %edx
	movl	%edx, 8(%esp)
	movl	%ebx, 4(%esp)
	movl	%eax, (%esp)
	call	__ZSt34__uninitialized_move_if_noexcept_aIPNSt7__cxx1112basic_stringIcSt11char_traitsIcESaIcEEES6_SaIS5_EET0_T_S9_S8_RT1_
LEHE83:
	movl	%eax, -12(%ebp)
	movl	-60(%ebp), %eax
	movl	%eax, %ecx
	call	__ZNSt12_Vector_baseINSt7__cxx1112basic_stringIcSt11char_traitsIcESaIcEEESaIS5_EE19_M_get_Tp_allocatorEv
	movl	%eax, %ecx
	movl	-60(%ebp), %eax
	movl	4(%eax), %edx
	movl	-60(%ebp), %eax
	movl	(%eax), %eax
	movl	%ecx, 8(%esp)
	movl	%edx, 4(%esp)
	movl	%eax, (%esp)
LEHB84:
	call	__ZSt8_DestroyIPNSt7__cxx1112basic_stringIcSt11char_traitsIcESaIcEEES5_EvT_S7_RSaIT0_E
	movl	-60(%ebp), %eax
	movl	8(%eax), %eax
	movl	%eax, %edx
	movl	-60(%ebp), %eax
	movl	(%eax), %eax
	subl	%eax, %edx
	movl	%edx, %eax
	sarl	$3, %eax
	imull	$-1431655765, %eax, %eax
	movl	%eax, %ecx
	movl	-60(%ebp), %eax
	movl	(%eax), %edx
	movl	-60(%ebp), %eax
	movl	%ecx, 4(%esp)
	movl	%edx, (%esp)
	movl	%eax, %ecx
	call	__ZNSt12_Vector_baseINSt7__cxx1112basic_stringIcSt11char_traitsIcESaIcEEESaIS5_EE13_M_deallocateEPS5_j
LEHE84:
	subl	$8, %esp
	movl	-60(%ebp), %eax
	movl	-24(%ebp), %edx
	movl	%edx, (%eax)
	movl	-60(%ebp), %eax
	movl	-12(%ebp), %edx
	movl	%edx, 4(%eax)
	movl	-16(%ebp), %edx
	movl	%edx, %eax
	addl	%eax, %eax
	addl	%edx, %eax
	sall	$3, %eax
	movl	%eax, %edx
	movl	-24(%ebp), %eax
	addl	%eax, %edx
	movl	-60(%ebp), %eax
	movl	%edx, 8(%eax)
	jmp	L523
L530:
	movl	%eax, (%esp)
	call	___cxa_begin_catch
	cmpl	$0, -12(%ebp)
	jne	L527
	movl	-20(%ebp), %edx
	movl	%edx, %eax
	addl	%eax, %eax
	addl	%edx, %eax
	sall	$3, %eax
	movl	%eax, %edx
	movl	-24(%ebp), %eax
	addl	%eax, %edx
	movl	-60(%ebp), %eax
	movl	%edx, 4(%esp)
	movl	%eax, (%esp)
LEHB85:
	call	__ZNSt16allocator_traitsISaINSt7__cxx1112basic_stringIcSt11char_traitsIcESaIcEEEEE7destroyIS5_EEvRS6_PT_
	jmp	L528
L527:
	movl	-60(%ebp), %eax
	movl	%eax, %ecx
	call	__ZNSt12_Vector_baseINSt7__cxx1112basic_stringIcSt11char_traitsIcESaIcEEESaIS5_EE19_M_get_Tp_allocatorEv
	movl	%eax, 8(%esp)
	movl	-12(%ebp), %eax
	movl	%eax, 4(%esp)
	movl	-24(%ebp), %eax
	movl	%eax, (%esp)
	call	__ZSt8_DestroyIPNSt7__cxx1112basic_stringIcSt11char_traitsIcESaIcEEES5_EvT_S7_RSaIT0_E
L528:
	movl	-60(%ebp), %eax
	movl	-16(%ebp), %edx
	movl	%edx, 4(%esp)
	movl	-24(%ebp), %edx
	movl	%edx, (%esp)
	movl	%eax, %ecx
	call	__ZNSt12_Vector_baseINSt7__cxx1112basic_stringIcSt11char_traitsIcESaIcEEESaIS5_EE13_M_deallocateEPS5_j
	subl	$8, %esp
	call	___cxa_rethrow
LEHE85:
L531:
	movl	%eax, %ebx
	call	___cxa_end_catch
	movl	%ebx, %eax
	movl	%eax, (%esp)
LEHB86:
	call	__Unwind_Resume
LEHE86:
L523:
	leal	-8(%ebp), %esp
	popl	%ebx
	.cfi_restore 3
	popl	%esi
	.cfi_restore 6
	popl	%ebp
	.cfi_restore 5
	.cfi_def_cfa 4, 4
	ret	$8
	.cfi_endproc
LFE5016:
	.section	.gcc_except_table,"w"
	.align 4
LLSDA5016:
	.byte	0xff
	.byte	0
	.uleb128 LLSDATT5016-LLSDATTD5016
LLSDATTD5016:
	.byte	0x1
	.uleb128 LLSDACSE5016-LLSDACSB5016
LLSDACSB5016:
	.uleb128 LEHB82-LFB5016
	.uleb128 LEHE82-LEHB82
	.uleb128 0
	.uleb128 0
	.uleb128 LEHB83-LFB5016
	.uleb128 LEHE83-LEHB83
	.uleb128 L530-LFB5016
	.uleb128 0x1
	.uleb128 LEHB84-LFB5016
	.uleb128 LEHE84-LEHB84
	.uleb128 0
	.uleb128 0
	.uleb128 LEHB85-LFB5016
	.uleb128 LEHE85-LEHB85
	.uleb128 L531-LFB5016
	.uleb128 0
	.uleb128 LEHB86-LFB5016
	.uleb128 LEHE86-LEHB86
	.uleb128 0
	.uleb128 0
LLSDACSE5016:
	.byte	0x1
	.byte	0
	.align 4
	.long	0
LLSDATT5016:
	.section	.text$_ZNSt6vectorINSt7__cxx1112basic_stringIcSt11char_traitsIcESaIcEEESaIS5_EE13_M_insert_auxIJS5_EEEvN9__gnu_cxx17__normal_iteratorIPS5_S7_EEDpOT_,"x"
	.linkonce discard
	.section	.text$_ZNSt6vectorINSt7__cxx1112basic_stringIcSt11char_traitsIcESaIcEEESaIS5_EE13_M_insert_auxIJRKS5_EEEvN9__gnu_cxx17__normal_iteratorIPS5_S7_EEDpOT_,"x"
	.linkonce discard
	.align 2
	.globl	__ZNSt6vectorINSt7__cxx1112basic_stringIcSt11char_traitsIcESaIcEEESaIS5_EE13_M_insert_auxIJRKS5_EEEvN9__gnu_cxx17__normal_iteratorIPS5_S7_EEDpOT_
	.def	__ZNSt6vectorINSt7__cxx1112basic_stringIcSt11char_traitsIcESaIcEEESaIS5_EE13_M_insert_auxIJRKS5_EEEvN9__gnu_cxx17__normal_iteratorIPS5_S7_EEDpOT_;	.scl	2;	.type	32;	.endef
__ZNSt6vectorINSt7__cxx1112basic_stringIcSt11char_traitsIcESaIcEEESaIS5_EE13_M_insert_auxIJRKS5_EEEvN9__gnu_cxx17__normal_iteratorIPS5_S7_EEDpOT_:
LFB5018:
	.cfi_startproc
	.cfi_personality 0,___gxx_personality_v0
	.cfi_lsda 0,LLSDA5018
	pushl	%ebp
	.cfi_def_cfa_offset 8
	.cfi_offset 5, -8
	movl	%esp, %ebp
	.cfi_def_cfa_register 5
	pushl	%esi
	pushl	%ebx
	subl	$80, %esp
	.cfi_offset 6, -12
	.cfi_offset 3, -16
	movl	%ecx, -60(%ebp)
	movl	-60(%ebp), %eax
	movl	4(%eax), %edx
	movl	-60(%ebp), %eax
	movl	8(%eax), %eax
	cmpl	%eax, %edx
	je	L533
	movl	-60(%ebp), %eax
	movl	4(%eax), %eax
	subl	$24, %eax
	movl	%eax, (%esp)
	call	__ZSt4moveIRNSt7__cxx1112basic_stringIcSt11char_traitsIcESaIcEEEEONSt16remove_referenceIT_E4typeEOS8_
	movl	%eax, %ecx
	movl	-60(%ebp), %eax
	movl	4(%eax), %edx
	movl	-60(%ebp), %eax
	movl	%ecx, 8(%esp)
	movl	%edx, 4(%esp)
	movl	%eax, (%esp)
LEHB87:
	call	__ZNSt16allocator_traitsISaINSt7__cxx1112basic_stringIcSt11char_traitsIcESaIcEEEEE9constructIS5_JS5_EEEvRS6_PT_DpOT0_
	movl	-60(%ebp), %eax
	movl	4(%eax), %eax
	leal	24(%eax), %edx
	movl	-60(%ebp), %eax
	movl	%edx, 4(%eax)
	movl	-60(%ebp), %eax
	movl	4(%eax), %eax
	leal	-24(%eax), %esi
	movl	-60(%ebp), %eax
	movl	4(%eax), %eax
	leal	-48(%eax), %ebx
	leal	8(%ebp), %ecx
	call	__ZNK9__gnu_cxx17__normal_iteratorIPNSt7__cxx1112basic_stringIcSt11char_traitsIcESaIcEEESt6vectorIS6_SaIS6_EEE4baseEv
	movl	(%eax), %eax
	movl	%esi, 8(%esp)
	movl	%ebx, 4(%esp)
	movl	%eax, (%esp)
	call	__ZSt13move_backwardIPNSt7__cxx1112basic_stringIcSt11char_traitsIcESaIcEEES6_ET0_T_S8_S7_
	movl	12(%ebp), %eax
	movl	%eax, (%esp)
	call	__ZSt7forwardIRKNSt7__cxx1112basic_stringIcSt11char_traitsIcESaIcEEEEOT_RNSt16remove_referenceIS8_E4typeE
	movl	%eax, %edx
	leal	-52(%ebp), %eax
	movl	%edx, (%esp)
	movl	%eax, %ecx
	call	__ZNSt7__cxx1112basic_stringIcSt11char_traitsIcESaIcEEC1ERKS4_
	subl	$4, %esp
	leal	8(%ebp), %ecx
	call	__ZNK9__gnu_cxx17__normal_iteratorIPNSt7__cxx1112basic_stringIcSt11char_traitsIcESaIcEEESt6vectorIS6_SaIS6_EEEdeEv
	movl	%eax, %edx
	leal	-52(%ebp), %eax
	movl	%eax, (%esp)
	movl	%edx, %ecx
	call	__ZNSt7__cxx1112basic_stringIcSt11char_traitsIcESaIcEEaSEOS4_
	subl	$4, %esp
	leal	-52(%ebp), %eax
	movl	%eax, %ecx
	call	__ZNSt7__cxx1112basic_stringIcSt11char_traitsIcESaIcEED1Ev
	jmp	L532
L533:
	movl	-60(%ebp), %eax
	movl	$LC22, 4(%esp)
	movl	$1, (%esp)
	movl	%eax, %ecx
	call	__ZNKSt6vectorINSt7__cxx1112basic_stringIcSt11char_traitsIcESaIcEEESaIS5_EE12_M_check_lenEjPKc
	subl	$8, %esp
	movl	%eax, -16(%ebp)
	movl	-60(%ebp), %eax
	movl	%eax, %ecx
	call	__ZNSt6vectorINSt7__cxx1112basic_stringIcSt11char_traitsIcESaIcEEESaIS5_EE5beginEv
	movl	%eax, -28(%ebp)
	leal	-28(%ebp), %eax
	movl	%eax, 4(%esp)
	leal	8(%ebp), %eax
	movl	%eax, (%esp)
	call	__ZN9__gnu_cxxmiIPNSt7__cxx1112basic_stringIcSt11char_traitsIcESaIcEEESt6vectorIS6_SaIS6_EEEENS_17__normal_iteratorIT_T0_E15difference_typeERKSE_SH_
	movl	%eax, -20(%ebp)
	movl	-60(%ebp), %eax
	movl	-16(%ebp), %edx
	movl	%edx, (%esp)
	movl	%eax, %ecx
	call	__ZNSt12_Vector_baseINSt7__cxx1112basic_stringIcSt11char_traitsIcESaIcEEESaIS5_EE11_M_allocateEj
LEHE87:
	subl	$4, %esp
	movl	%eax, -24(%ebp)
	movl	-24(%ebp), %eax
	movl	%eax, -12(%ebp)
	movl	12(%ebp), %eax
	movl	%eax, (%esp)
	call	__ZSt7forwardIRKNSt7__cxx1112basic_stringIcSt11char_traitsIcESaIcEEEEOT_RNSt16remove_referenceIS8_E4typeE
	movl	%eax, %ecx
	movl	-20(%ebp), %edx
	movl	%edx, %eax
	addl	%eax, %eax
	addl	%edx, %eax
	sall	$3, %eax
	movl	%eax, %edx
	movl	-24(%ebp), %eax
	addl	%eax, %edx
	movl	-60(%ebp), %eax
	movl	%ecx, 8(%esp)
	movl	%edx, 4(%esp)
	movl	%eax, (%esp)
LEHB88:
	call	__ZNSt16allocator_traitsISaINSt7__cxx1112basic_stringIcSt11char_traitsIcESaIcEEEEE9constructIS5_JRKS5_EEEvRS6_PT_DpOT0_
	movl	$0, -12(%ebp)
	movl	-60(%ebp), %eax
	movl	%eax, %ecx
	call	__ZNSt12_Vector_baseINSt7__cxx1112basic_stringIcSt11char_traitsIcESaIcEEESaIS5_EE19_M_get_Tp_allocatorEv
	movl	%eax, %ebx
	leal	8(%ebp), %ecx
	call	__ZNK9__gnu_cxx17__normal_iteratorIPNSt7__cxx1112basic_stringIcSt11char_traitsIcESaIcEEESt6vectorIS6_SaIS6_EEE4baseEv
	movl	(%eax), %edx
	movl	-60(%ebp), %eax
	movl	(%eax), %eax
	movl	%ebx, 12(%esp)
	movl	-24(%ebp), %ecx
	movl	%ecx, 8(%esp)
	movl	%edx, 4(%esp)
	movl	%eax, (%esp)
